
spf64:     file format elf64-x86-64

Sections:
Idx Name          Size      VMA               LMA               File off  Algn
  0 .interp       0000001c  0000000000400200  0000000000400200  00000200  2**0
                  CONTENTS, ALLOC, LOAD, READONLY, DATA
  1 .note.ABI-tag 00000020  000000000040021c  000000000040021c  0000021c  2**2
                  CONTENTS, ALLOC, LOAD, READONLY, DATA
  2 .note.gnu.build-id 00000024  000000000040023c  000000000040023c  0000023c  2**2
                  CONTENTS, ALLOC, LOAD, READONLY, DATA
  3 .hash         00000144  0000000000400260  0000000000400260  00000260  2**3
                  CONTENTS, ALLOC, LOAD, READONLY, DATA
  4 .gnu.hash     00000024  00000000004003a8  00000000004003a8  000003a8  2**3
                  CONTENTS, ALLOC, LOAD, READONLY, DATA
  5 .dynsym       000003f0  00000000004003d0  00000000004003d0  000003d0  2**3
                  CONTENTS, ALLOC, LOAD, READONLY, DATA
  6 .dynstr       00000155  00000000004007c0  00000000004007c0  000007c0  2**0
                  CONTENTS, ALLOC, LOAD, READONLY, DATA
  7 .gnu.version  00000054  0000000000400916  0000000000400916  00000916  2**1
                  CONTENTS, ALLOC, LOAD, READONLY, DATA
  8 .gnu.version_r 00000020  0000000000400970  0000000000400970  00000970  2**3
                  CONTENTS, ALLOC, LOAD, READONLY, DATA
  9 .rela.dyn     00000030  0000000000400990  0000000000400990  00000990  2**3
                  CONTENTS, ALLOC, LOAD, READONLY, DATA
 10 .rela.plt     00000390  00000000004009c0  00000000004009c0  000009c0  2**3
                  CONTENTS, ALLOC, LOAD, READONLY, DATA
 11 .init         0000000e  0000000000400d50  0000000000400d50  00000d50  2**2
                  CONTENTS, ALLOC, LOAD, READONLY, CODE
 12 .plt          00000270  0000000000400d60  0000000000400d60  00000d60  2**4
                  CONTENTS, ALLOC, LOAD, READONLY, CODE
 13 .text         000011dc  0000000000400fd0  0000000000400fd0  00000fd0  2**4
                  CONTENTS, ALLOC, LOAD, READONLY, CODE
 14 .fini         00000009  00000000004021ac  00000000004021ac  000021ac  2**2
                  CONTENTS, ALLOC, LOAD, READONLY, CODE
 15 .rodata       000000ee  00000000004021b8  00000000004021b8  000021b8  2**3
                  CONTENTS, ALLOC, LOAD, READONLY, DATA
 16 .eh_frame_hdr 000001ec  00000000004022a8  00000000004022a8  000022a8  2**2
                  CONTENTS, ALLOC, LOAD, READONLY, DATA
 17 .eh_frame     000007b4  0000000000402498  0000000000402498  00002498  2**3
                  CONTENTS, ALLOC, LOAD, READONLY, DATA
 18 .init_array   00000008  0000000000603000  0000000000603000  00003000  2**3
                  CONTENTS, ALLOC, LOAD, DATA
 19 .fini_array   00000008  0000000000603008  0000000000603008  00003008  2**3
                  CONTENTS, ALLOC, LOAD, DATA
 20 .jcr          00000008  0000000000603010  0000000000603010  00003010  2**3
                  CONTENTS, ALLOC, LOAD, DATA
 21 .dynamic      000001f0  0000000000603018  0000000000603018  00003018  2**3
                  CONTENTS, ALLOC, LOAD, DATA
 22 .got          00000008  0000000000603208  0000000000603208  00003208  2**3
                  CONTENTS, ALLOC, LOAD, DATA
 23 .got.plt      00000148  0000000000603210  0000000000603210  00003210  2**3
                  CONTENTS, ALLOC, LOAD, DATA
 24 .data         0000a148  0000000000603360  0000000000603360  00003360  2**5
                  CONTENTS, ALLOC, LOAD, DATA
 25 .bss          009cf040  000000000060d4c0  000000000060d4c0  0000d4a8  2**5
                  ALLOC
 26 .comment      00000038  0000000000000000  0000000000000000  0000d4a8  2**0
                  CONTENTS, READONLY
 27 .debug_aranges 000000a0  0000000000000000  0000000000000000  0000d4e0  2**4
                  CONTENTS, READONLY, DEBUGGING
 28 .debug_info   00001880  0000000000000000  0000000000000000  0000d580  2**0
                  CONTENTS, READONLY, DEBUGGING
 29 .debug_abbrev 000004fa  0000000000000000  0000000000000000  0000ee00  2**0
                  CONTENTS, READONLY, DEBUGGING
 30 .debug_line   000016ff  0000000000000000  0000000000000000  0000f2fa  2**0
                  CONTENTS, READONLY, DEBUGGING
 31 .debug_str    000009eb  0000000000000000  0000000000000000  000109f9  2**0
                  CONTENTS, READONLY, DEBUGGING
 32 .debug_loc    0000154c  0000000000000000  0000000000000000  000113e4  2**0
                  CONTENTS, READONLY, DEBUGGING
 33 .debug_ranges 00000040  0000000000000000  0000000000000000  00012930  2**4
                  CONTENTS, READONLY, DEBUGGING

Disassembly of section .init:

0000000000400d50 <_init>:
  400d50:	48 83 ec 08          	sub    $0x8,%rsp
  400d54:	e8 a3 02 00 00       	callq  400ffc <call_gmon_start>
  400d59:	48 83 c4 08          	add    $0x8,%rsp
  400d5d:	c3                   	retq   

Disassembly of section .plt:

0000000000400d60 <free@plt-0x10>:
  400d60:	ff 35 b2 24 20 00    	pushq  0x2024b2(%rip)        # 603218 <_GLOBAL_OFFSET_TABLE_+0x8>
  400d66:	ff 25 b4 24 20 00    	jmpq   *0x2024b4(%rip)        # 603220 <_GLOBAL_OFFSET_TABLE_+0x10>
  400d6c:	0f 1f 40 00          	nopl   0x0(%rax)

0000000000400d70 <free@plt>:
  400d70:	ff 25 b2 24 20 00    	jmpq   *0x2024b2(%rip)        # 603228 <_GLOBAL_OFFSET_TABLE_+0x18>
  400d76:	68 00 00 00 00       	pushq  $0x0
  400d7b:	e9 e0 ff ff ff       	jmpq   400d60 <_init+0x10>

0000000000400d80 <puts@plt>:
  400d80:	ff 25 aa 24 20 00    	jmpq   *0x2024aa(%rip)        # 603230 <_GLOBAL_OFFSET_TABLE_+0x20>
  400d86:	68 01 00 00 00       	pushq  $0x1
  400d8b:	e9 d0 ff ff ff       	jmpq   400d60 <_init+0x10>

0000000000400d90 <clone@plt>:
  400d90:	ff 25 a2 24 20 00    	jmpq   *0x2024a2(%rip)        # 603238 <_GLOBAL_OFFSET_TABLE_+0x28>
  400d96:	68 02 00 00 00       	pushq  $0x2
  400d9b:	e9 c0 ff ff ff       	jmpq   400d60 <_init+0x10>

0000000000400da0 <strtod@plt>:
  400da0:	ff 25 9a 24 20 00    	jmpq   *0x20249a(%rip)        # 603240 <_GLOBAL_OFFSET_TABLE_+0x30>
  400da6:	68 03 00 00 00       	pushq  $0x3
  400dab:	e9 b0 ff ff ff       	jmpq   400d60 <_init+0x10>

0000000000400db0 <setsockopt@plt>:
  400db0:	ff 25 92 24 20 00    	jmpq   *0x202492(%rip)        # 603248 <_GLOBAL_OFFSET_TABLE_+0x38>
  400db6:	68 04 00 00 00       	pushq  $0x4
  400dbb:	e9 a0 ff ff ff       	jmpq   400d60 <_init+0x10>

0000000000400dc0 <write@plt>:
  400dc0:	ff 25 8a 24 20 00    	jmpq   *0x20248a(%rip)        # 603250 <_GLOBAL_OFFSET_TABLE_+0x40>
  400dc6:	68 05 00 00 00       	pushq  $0x5
  400dcb:	e9 90 ff ff ff       	jmpq   400d60 <_init+0x10>

0000000000400dd0 <getpid@plt>:
  400dd0:	ff 25 82 24 20 00    	jmpq   *0x202482(%rip)        # 603258 <_GLOBAL_OFFSET_TABLE_+0x48>
  400dd6:	68 06 00 00 00       	pushq  $0x6
  400ddb:	e9 80 ff ff ff       	jmpq   400d60 <_init+0x10>

0000000000400de0 <strlen@plt>:
  400de0:	ff 25 7a 24 20 00    	jmpq   *0x20247a(%rip)        # 603260 <_GLOBAL_OFFSET_TABLE_+0x50>
  400de6:	68 07 00 00 00       	pushq  $0x7
  400deb:	e9 70 ff ff ff       	jmpq   400d60 <_init+0x10>

0000000000400df0 <chdir@plt>:
  400df0:	ff 25 72 24 20 00    	jmpq   *0x202472(%rip)        # 603268 <_GLOBAL_OFFSET_TABLE_+0x58>
  400df6:	68 08 00 00 00       	pushq  $0x8
  400dfb:	e9 60 ff ff ff       	jmpq   400d60 <_init+0x10>

0000000000400e00 <htons@plt>:
  400e00:	ff 25 6a 24 20 00    	jmpq   *0x20246a(%rip)        # 603270 <_GLOBAL_OFFSET_TABLE_+0x60>
  400e06:	68 09 00 00 00       	pushq  $0x9
  400e0b:	e9 50 ff ff ff       	jmpq   400d60 <_init+0x10>

0000000000400e10 <printf@plt>:
  400e10:	ff 25 62 24 20 00    	jmpq   *0x202462(%rip)        # 603278 <_GLOBAL_OFFSET_TABLE_+0x68>
  400e16:	68 0a 00 00 00       	pushq  $0xa
  400e1b:	e9 40 ff ff ff       	jmpq   400d60 <_init+0x10>

0000000000400e20 <strrchr@plt>:
  400e20:	ff 25 5a 24 20 00    	jmpq   *0x20245a(%rip)        # 603280 <_GLOBAL_OFFSET_TABLE_+0x70>
  400e26:	68 0b 00 00 00       	pushq  $0xb
  400e2b:	e9 30 ff ff ff       	jmpq   400d60 <_init+0x10>

0000000000400e30 <lseek@plt>:
  400e30:	ff 25 52 24 20 00    	jmpq   *0x202452(%rip)        # 603288 <_GLOBAL_OFFSET_TABLE_+0x78>
  400e36:	68 0c 00 00 00       	pushq  $0xc
  400e3b:	e9 20 ff ff ff       	jmpq   400d60 <_init+0x10>

0000000000400e40 <memset@plt>:
  400e40:	ff 25 4a 24 20 00    	jmpq   *0x20244a(%rip)        # 603290 <_GLOBAL_OFFSET_TABLE_+0x80>
  400e46:	68 0d 00 00 00       	pushq  $0xd
  400e4b:	e9 10 ff ff ff       	jmpq   400d60 <_init+0x10>

0000000000400e50 <ioctl@plt>:
  400e50:	ff 25 42 24 20 00    	jmpq   *0x202442(%rip)        # 603298 <_GLOBAL_OFFSET_TABLE_+0x88>
  400e56:	68 0e 00 00 00       	pushq  $0xe
  400e5b:	e9 00 ff ff ff       	jmpq   400d60 <_init+0x10>

0000000000400e60 <close@plt>:
  400e60:	ff 25 3a 24 20 00    	jmpq   *0x20243a(%rip)        # 6032a0 <_GLOBAL_OFFSET_TABLE_+0x90>
  400e66:	68 0f 00 00 00       	pushq  $0xf
  400e6b:	e9 f0 fe ff ff       	jmpq   400d60 <_init+0x10>

0000000000400e70 <isspace@plt>:
  400e70:	ff 25 32 24 20 00    	jmpq   *0x202432(%rip)        # 6032a8 <_GLOBAL_OFFSET_TABLE_+0x98>
  400e76:	68 10 00 00 00       	pushq  $0x10
  400e7b:	e9 e0 fe ff ff       	jmpq   400d60 <_init+0x10>

0000000000400e80 <read@plt>:
  400e80:	ff 25 2a 24 20 00    	jmpq   *0x20242a(%rip)        # 6032b0 <_GLOBAL_OFFSET_TABLE_+0xa0>
  400e86:	68 11 00 00 00       	pushq  $0x11
  400e8b:	e9 d0 fe ff ff       	jmpq   400d60 <_init+0x10>

0000000000400e90 <__libc_start_main@plt>:
  400e90:	ff 25 22 24 20 00    	jmpq   *0x202422(%rip)        # 6032b8 <_GLOBAL_OFFSET_TABLE_+0xa8>
  400e96:	68 12 00 00 00       	pushq  $0x12
  400e9b:	e9 c0 fe ff ff       	jmpq   400d60 <_init+0x10>

0000000000400ea0 <fgets@plt>:
  400ea0:	ff 25 1a 24 20 00    	jmpq   *0x20241a(%rip)        # 6032c0 <_GLOBAL_OFFSET_TABLE_+0xb0>
  400ea6:	68 13 00 00 00       	pushq  $0x13
  400eab:	e9 b0 fe ff ff       	jmpq   400d60 <_init+0x10>

0000000000400eb0 <gethostbyname@plt>:
  400eb0:	ff 25 12 24 20 00    	jmpq   *0x202412(%rip)        # 6032c8 <_GLOBAL_OFFSET_TABLE_+0xb8>
  400eb6:	68 14 00 00 00       	pushq  $0x14
  400ebb:	e9 a0 fe ff ff       	jmpq   400d60 <_init+0x10>

0000000000400ec0 <kill@plt>:
  400ec0:	ff 25 0a 24 20 00    	jmpq   *0x20240a(%rip)        # 6032d0 <_GLOBAL_OFFSET_TABLE_+0xc0>
  400ec6:	68 15 00 00 00       	pushq  $0x15
  400ecb:	e9 90 fe ff ff       	jmpq   400d60 <_init+0x10>

0000000000400ed0 <malloc@plt>:
  400ed0:	ff 25 02 24 20 00    	jmpq   *0x202402(%rip)        # 6032d8 <_GLOBAL_OFFSET_TABLE_+0xc8>
  400ed6:	68 16 00 00 00       	pushq  $0x16
  400edb:	e9 80 fe ff ff       	jmpq   400d60 <_init+0x10>

0000000000400ee0 <listen@plt>:
  400ee0:	ff 25 fa 23 20 00    	jmpq   *0x2023fa(%rip)        # 6032e0 <_GLOBAL_OFFSET_TABLE_+0xd0>
  400ee6:	68 17 00 00 00       	pushq  $0x17
  400eeb:	e9 70 fe ff ff       	jmpq   400d60 <_init+0x10>

0000000000400ef0 <ntohs@plt>:
  400ef0:	ff 25 f2 23 20 00    	jmpq   *0x2023f2(%rip)        # 6032e8 <_GLOBAL_OFFSET_TABLE_+0xd8>
  400ef6:	68 18 00 00 00       	pushq  $0x18
  400efb:	e9 60 fe ff ff       	jmpq   400d60 <_init+0x10>

0000000000400f00 <bind@plt>:
  400f00:	ff 25 ea 23 20 00    	jmpq   *0x2023ea(%rip)        # 6032f0 <_GLOBAL_OFFSET_TABLE_+0xe0>
  400f06:	68 19 00 00 00       	pushq  $0x19
  400f0b:	e9 50 fe ff ff       	jmpq   400d60 <_init+0x10>

0000000000400f10 <tcgetattr@plt>:
  400f10:	ff 25 e2 23 20 00    	jmpq   *0x2023e2(%rip)        # 6032f8 <_GLOBAL_OFFSET_TABLE_+0xe8>
  400f16:	68 1a 00 00 00       	pushq  $0x1a
  400f1b:	e9 40 fe ff ff       	jmpq   400d60 <_init+0x10>

0000000000400f20 <tcsetattr@plt>:
  400f20:	ff 25 da 23 20 00    	jmpq   *0x2023da(%rip)        # 603300 <_GLOBAL_OFFSET_TABLE_+0xf0>
  400f26:	68 1b 00 00 00       	pushq  $0x1b
  400f2b:	e9 30 fe ff ff       	jmpq   400d60 <_init+0x10>

0000000000400f30 <open@plt>:
  400f30:	ff 25 d2 23 20 00    	jmpq   *0x2023d2(%rip)        # 603308 <_GLOBAL_OFFSET_TABLE_+0xf8>
  400f36:	68 1c 00 00 00       	pushq  $0x1c
  400f3b:	e9 20 fe ff ff       	jmpq   400d60 <_init+0x10>

0000000000400f40 <perror@plt>:
  400f40:	ff 25 ca 23 20 00    	jmpq   *0x2023ca(%rip)        # 603310 <_GLOBAL_OFFSET_TABLE_+0x100>
  400f46:	68 1d 00 00 00       	pushq  $0x1d
  400f4b:	e9 10 fe ff ff       	jmpq   400d60 <_init+0x10>

0000000000400f50 <bzero@plt>:
  400f50:	ff 25 c2 23 20 00    	jmpq   *0x2023c2(%rip)        # 603318 <_GLOBAL_OFFSET_TABLE_+0x108>
  400f56:	68 1e 00 00 00       	pushq  $0x1e
  400f5b:	e9 00 fe ff ff       	jmpq   400d60 <_init+0x10>

0000000000400f60 <accept@plt>:
  400f60:	ff 25 ba 23 20 00    	jmpq   *0x2023ba(%rip)        # 603320 <_GLOBAL_OFFSET_TABLE_+0x110>
  400f66:	68 1f 00 00 00       	pushq  $0x1f
  400f6b:	e9 f0 fd ff ff       	jmpq   400d60 <_init+0x10>

0000000000400f70 <sprintf@plt>:
  400f70:	ff 25 b2 23 20 00    	jmpq   *0x2023b2(%rip)        # 603328 <_GLOBAL_OFFSET_TABLE_+0x118>
  400f76:	68 20 00 00 00       	pushq  $0x20
  400f7b:	e9 e0 fd ff ff       	jmpq   400d60 <_init+0x10>

0000000000400f80 <getppid@plt>:
  400f80:	ff 25 aa 23 20 00    	jmpq   *0x2023aa(%rip)        # 603330 <_GLOBAL_OFFSET_TABLE_+0x120>
  400f86:	68 21 00 00 00       	pushq  $0x21
  400f8b:	e9 d0 fd ff ff       	jmpq   400d60 <_init+0x10>

0000000000400f90 <exit@plt>:
  400f90:	ff 25 a2 23 20 00    	jmpq   *0x2023a2(%rip)        # 603338 <_GLOBAL_OFFSET_TABLE_+0x128>
  400f96:	68 22 00 00 00       	pushq  $0x22
  400f9b:	e9 c0 fd ff ff       	jmpq   400d60 <_init+0x10>

0000000000400fa0 <connect@plt>:
  400fa0:	ff 25 9a 23 20 00    	jmpq   *0x20239a(%rip)        # 603340 <_GLOBAL_OFFSET_TABLE_+0x130>
  400fa6:	68 23 00 00 00       	pushq  $0x23
  400fab:	e9 b0 fd ff ff       	jmpq   400d60 <_init+0x10>

0000000000400fb0 <fork@plt>:
  400fb0:	ff 25 92 23 20 00    	jmpq   *0x202392(%rip)        # 603348 <_GLOBAL_OFFSET_TABLE_+0x138>
  400fb6:	68 24 00 00 00       	pushq  $0x24
  400fbb:	e9 a0 fd ff ff       	jmpq   400d60 <_init+0x10>

0000000000400fc0 <socket@plt>:
  400fc0:	ff 25 8a 23 20 00    	jmpq   *0x20238a(%rip)        # 603350 <_GLOBAL_OFFSET_TABLE_+0x140>
  400fc6:	68 25 00 00 00       	pushq  $0x25
  400fcb:	e9 90 fd ff ff       	jmpq   400d60 <_init+0x10>

Disassembly of section .text:

0000000000400fd0 <_start>:
  400fd0:	31 ed                	xor    %ebp,%ebp
  400fd2:	49 89 d1             	mov    %rdx,%r9
  400fd5:	5e                   	pop    %rsi
  400fd6:	48 89 e2             	mov    %rsp,%rdx
  400fd9:	48 83 e4 f0          	and    $0xfffffffffffffff0,%rsp
  400fdd:	50                   	push   %rax
  400fde:	54                   	push   %rsp
  400fdf:	49 c7 c0 10 21 40 00 	mov    $0x402110,%r8
  400fe6:	48 c7 c1 20 21 40 00 	mov    $0x402120,%rcx
  400fed:	48 c7 c7 9c 1c 40 00 	mov    $0x401c9c,%rdi
  400ff4:	e8 97 fe ff ff       	callq  400e90 <__libc_start_main@plt>
  400ff9:	f4                   	hlt    
  400ffa:	90                   	nop
  400ffb:	90                   	nop

0000000000400ffc <call_gmon_start>:
  400ffc:	48 83 ec 08          	sub    $0x8,%rsp
  401000:	48 8b 05 01 22 20 00 	mov    0x202201(%rip),%rax        # 603208 <_DYNAMIC+0x1f0>
  401007:	48 85 c0             	test   %rax,%rax
  40100a:	74 02                	je     40100e <call_gmon_start+0x12>
  40100c:	ff d0                	callq  *%rax
  40100e:	48 83 c4 08          	add    $0x8,%rsp
  401012:	c3                   	retq   
  401013:	90                   	nop
  401014:	90                   	nop
  401015:	90                   	nop
  401016:	90                   	nop
  401017:	90                   	nop
  401018:	90                   	nop
  401019:	90                   	nop
  40101a:	90                   	nop
  40101b:	90                   	nop
  40101c:	90                   	nop
  40101d:	90                   	nop
  40101e:	90                   	nop
  40101f:	90                   	nop

0000000000401020 <deregister_tm_clones>:
  401020:	b8 af d4 60 00       	mov    $0x60d4af,%eax
  401025:	55                   	push   %rbp
  401026:	48 2d a8 d4 60 00    	sub    $0x60d4a8,%rax
  40102c:	48 83 f8 0e          	cmp    $0xe,%rax
  401030:	48 89 e5             	mov    %rsp,%rbp
  401033:	77 02                	ja     401037 <deregister_tm_clones+0x17>
  401035:	5d                   	pop    %rbp
  401036:	c3                   	retq   
  401037:	b8 00 00 00 00       	mov    $0x0,%eax
  40103c:	48 85 c0             	test   %rax,%rax
  40103f:	74 f4                	je     401035 <deregister_tm_clones+0x15>
  401041:	5d                   	pop    %rbp
  401042:	bf a8 d4 60 00       	mov    $0x60d4a8,%edi
  401047:	ff e0                	jmpq   *%rax
  401049:	0f 1f 80 00 00 00 00 	nopl   0x0(%rax)

0000000000401050 <register_tm_clones>:
  401050:	b8 a8 d4 60 00       	mov    $0x60d4a8,%eax
  401055:	55                   	push   %rbp
  401056:	48 2d a8 d4 60 00    	sub    $0x60d4a8,%rax
  40105c:	48 c1 f8 03          	sar    $0x3,%rax
  401060:	48 89 e5             	mov    %rsp,%rbp
  401063:	48 89 c2             	mov    %rax,%rdx
  401066:	48 c1 ea 3f          	shr    $0x3f,%rdx
  40106a:	48 01 d0             	add    %rdx,%rax
  40106d:	48 89 c6             	mov    %rax,%rsi
  401070:	48 d1 fe             	sar    %rsi
  401073:	75 02                	jne    401077 <register_tm_clones+0x27>
  401075:	5d                   	pop    %rbp
  401076:	c3                   	retq   
  401077:	ba 00 00 00 00       	mov    $0x0,%edx
  40107c:	48 85 d2             	test   %rdx,%rdx
  40107f:	74 f4                	je     401075 <register_tm_clones+0x25>
  401081:	5d                   	pop    %rbp
  401082:	bf a8 d4 60 00       	mov    $0x60d4a8,%edi
  401087:	ff e2                	jmpq   *%rdx
  401089:	0f 1f 80 00 00 00 00 	nopl   0x0(%rax)

0000000000401090 <__do_global_dtors_aux>:
  401090:	80 3d 31 c4 20 00 00 	cmpb   $0x0,0x20c431(%rip)        # 60d4c8 <completed.6092>
  401097:	75 11                	jne    4010aa <__do_global_dtors_aux+0x1a>
  401099:	55                   	push   %rbp
  40109a:	48 89 e5             	mov    %rsp,%rbp
  40109d:	e8 7e ff ff ff       	callq  401020 <deregister_tm_clones>
  4010a2:	5d                   	pop    %rbp
  4010a3:	c6 05 1e c4 20 00 01 	movb   $0x1,0x20c41e(%rip)        # 60d4c8 <completed.6092>
  4010aa:	f3 c3                	repz retq 
  4010ac:	0f 1f 40 00          	nopl   0x0(%rax)

00000000004010b0 <frame_dummy>:
  4010b0:	48 83 3d 58 1f 20 00 	cmpq   $0x0,0x201f58(%rip)        # 603010 <__JCR_END__>
  4010b7:	00 
  4010b8:	74 1b                	je     4010d5 <frame_dummy+0x25>
  4010ba:	b8 00 00 00 00       	mov    $0x0,%eax
  4010bf:	48 85 c0             	test   %rax,%rax
  4010c2:	74 11                	je     4010d5 <frame_dummy+0x25>
  4010c4:	55                   	push   %rbp
  4010c5:	bf 10 30 60 00       	mov    $0x603010,%edi
  4010ca:	48 89 e5             	mov    %rsp,%rbp
  4010cd:	ff d0                	callq  *%rax
  4010cf:	5d                   	pop    %rbp
  4010d0:	e9 7b ff ff ff       	jmpq   401050 <register_tm_clones>
  4010d5:	e9 76 ff ff ff       	jmpq   401050 <register_tm_clones>
  4010da:	90                   	nop
  4010db:	90                   	nop

00000000004010dc <fftst>:
#define HERE_SIZE 102400
#define VOCABULARY_POOL 10240000
#define STACK_SIZE 20480

fftst:
   push %rbp
  4010dc:	55                   	push   %rbp
  callq f_tst1
  4010dd:	e8 54 04 00 00       	callq  401536 <f_tst1>
   pop %rbp
  4010e2:	5d                   	pop    %rbp
   ret
  4010e3:	c3                   	retq   

.globl tst0
	shl    $0x20,%rax
  4010e4:	48 c1 e0 20          	shl    $0x20,%rax

00000000004010e8 <amain>:
tst0:
.globl amain
amain:
        push %rbp
  4010e8:	55                   	push   %rbp
        push %rbx
  4010e9:	53                   	push   %rbx
		mov	%rsp,BYELEVEL
  4010ea:	48 89 24 25 e8 d4 60 	mov    %rsp,0x60d4e8
  4010f1:	00 

		xor %eax,%eax
  4010f2:	31 c0                	xor    %eax,%eax
        mov $_Stekc+STACK_SIZE-0x20,%rbp
  4010f4:	48 c7 c5 d0 24 61 00 	mov    $0x6124d0,%rbp
        mov %esp,T_R0
  4010fb:	89 24 25 0b 4d 60 00 	mov    %esp,0x604d0b
		mov $main_task,%r14
  401102:	49 c7 c6 0b 4d 60 00 	mov    $0x604d0b,%r14

   		mov		%rsp,%rax
  401109:	48 89 e0             	mov    %rsp,%rax
		and $0xffffffff80000000,%rax
  40110c:	48 25 00 00 00 80    	and    $0xffffffff80000000,%rax
		mov		%rax,HSPSAVE
  401112:	48 89 04 25 e0 d4 60 	mov    %rax,0x60d4e0
  401119:	00 

        call	LastCFA
  40111a:	e8 fa 4f 20 00       	callq  606119 <INIT>
			div		%ecx
  40111f:	f7 f1                	div    %ecx
			div		%rcx
  401121:	48 f7 f1             	div    %rcx
			mull	(%rbp)
  401124:	f7 65 00             	mull   0x0(%rbp)
  401127:	48 f7 65 00          	mulq   0x0(%rbp)

000000000040112b <MBYE>:
		.byte 0x48, 0xf7, 0x65, 00


MBYE:	mov	BYELEVEL,%rsp
  40112b:	48 8b 24 25 e8 d4 60 	mov    0x60d4e8,%rsp
  401132:	00 
		pop %rbx
  401133:	5b                   	pop    %rbx
        pop %rbp
  401134:	5d                   	pop    %rbp
		ret
  401135:	c3                   	retq   
  401136:	90                   	nop
  401137:	90                   	nop

0000000000401138 <_0e>:

double *FP;
double  FPBuf[FPBufSize];

void _0e()
{	FP--;
  401138:	55                   	push   %rbp
  401139:	48 89 e5             	mov    %rsp,%rbp
  40113c:	48 8b 05 bd 93 bd 00 	mov    0xbd93bd(%rip),%rax        # fda500 <FP>
  401143:	48 83 e8 08          	sub    $0x8,%rax
  401147:	48 89 05 b2 93 bd 00 	mov    %rax,0xbd93b2(%rip)        # fda500 <FP>
	FP[0] = 0.0;
  40114e:	48 8b 15 ab 93 bd 00 	mov    0xbd93ab(%rip),%rdx        # fda500 <FP>
  401155:	b8 00 00 00 00       	mov    $0x0,%eax
  40115a:	48 89 02             	mov    %rax,(%rdx)
}
  40115d:	5d                   	pop    %rbp
  40115e:	c3                   	retq   

000000000040115f <x1e>:

void x1e()
{	FP--;
  40115f:	55                   	push   %rbp
  401160:	48 89 e5             	mov    %rsp,%rbp
  401163:	48 8b 05 96 93 bd 00 	mov    0xbd9396(%rip),%rax        # fda500 <FP>
  40116a:	48 83 e8 08          	sub    $0x8,%rax
  40116e:	48 89 05 8b 93 bd 00 	mov    %rax,0xbd938b(%rip)        # fda500 <FP>
	FP[0] = 1.0;
  401175:	48 8b 15 84 93 bd 00 	mov    0xbd9384(%rip),%rdx        # fda500 <FP>
  40117c:	48 b8 00 00 00 00 00 	movabs $0x3ff0000000000000,%rax
  401183:	00 f0 3f 
  401186:	48 89 02             	mov    %rax,(%rdx)
}
  401189:	5d                   	pop    %rbp
  40118a:	c3                   	retq   

000000000040118b <ZTO_FLOAT>:

int ZTO_FLOAT(char *szInput)
{ char * pEnd; 
  40118b:	55                   	push   %rbp
  40118c:	48 89 e5             	mov    %rsp,%rbp
  40118f:	53                   	push   %rbx
  401190:	48 83 ec 28          	sub    $0x28,%rsp
  401194:	48 89 7d d8          	mov    %rdi,-0x28(%rbp)
	FP--;
  401198:	48 8b 05 61 93 bd 00 	mov    0xbd9361(%rip),%rax        # fda500 <FP>
  40119f:	48 83 e8 08          	sub    $0x8,%rax
  4011a3:	48 89 05 56 93 bd 00 	mov    %rax,0xbd9356(%rip)        # fda500 <FP>
	FP[0] = strtod (szInput,&pEnd);
  4011aa:	48 8b 1d 4f 93 bd 00 	mov    0xbd934f(%rip),%rbx        # fda500 <FP>
  4011b1:	48 8d 55 e8          	lea    -0x18(%rbp),%rdx
  4011b5:	48 8b 45 d8          	mov    -0x28(%rbp),%rax
  4011b9:	48 89 d6             	mov    %rdx,%rsi
  4011bc:	48 89 c7             	mov    %rax,%rdi
  4011bf:	e8 dc fb ff ff       	callq  400da0 <strtod@plt>
  4011c4:	f2 0f 11 45 d0       	movsd  %xmm0,-0x30(%rbp)
  4011c9:	48 8b 45 d0          	mov    -0x30(%rbp),%rax
  4011cd:	48 89 03             	mov    %rax,(%rbx)
//	if (pEnd == NULL)	return -1;
	while (isspace (*pEnd))	pEnd++;
  4011d0:	eb 0c                	jmp    4011de <ZTO_FLOAT+0x53>
  4011d2:	48 8b 45 e8          	mov    -0x18(%rbp),%rax
  4011d6:	48 83 c0 01          	add    $0x1,%rax
  4011da:	48 89 45 e8          	mov    %rax,-0x18(%rbp)
  4011de:	48 8b 45 e8          	mov    -0x18(%rbp),%rax
  4011e2:	0f b6 00             	movzbl (%rax),%eax
  4011e5:	0f be c0             	movsbl %al,%eax
  4011e8:	89 c7                	mov    %eax,%edi
  4011ea:	e8 81 fc ff ff       	callq  400e70 <isspace@plt>
  4011ef:	85 c0                	test   %eax,%eax
  4011f1:	75 df                	jne    4011d2 <ZTO_FLOAT+0x47>
	return *pEnd == '\0';
  4011f3:	48 8b 45 e8          	mov    -0x18(%rbp),%rax
  4011f7:	0f b6 00             	movzbl (%rax),%eax
  4011fa:	84 c0                	test   %al,%al
  4011fc:	0f 94 c0             	sete   %al
  4011ff:	0f b6 c0             	movzbl %al,%eax
}
  401202:	48 83 c4 28          	add    $0x28,%rsp
  401206:	5b                   	pop    %rbx
  401207:	5d                   	pop    %rbp
  401208:	c3                   	retq   

0000000000401209 <F_dot_STR>:

char buf[40];
int ii;
char * F_dot_STR()
{
  401209:	55                   	push   %rbp
  40120a:	48 89 e5             	mov    %rsp,%rbp
  40120d:	48 83 ec 10          	sub    $0x10,%rsp
   sprintf (buf,"%lf",*FP++);
  401211:	48 8b 15 e8 92 bd 00 	mov    0xbd92e8(%rip),%rdx        # fda500 <FP>
  401218:	48 8b 02             	mov    (%rdx),%rax
  40121b:	48 83 c2 08          	add    $0x8,%rdx
  40121f:	48 89 15 da 92 bd 00 	mov    %rdx,0xbd92da(%rip)        # fda500 <FP>
  401226:	48 89 45 f8          	mov    %rax,-0x8(%rbp)
  40122a:	f2 0f 10 45 f8       	movsd  -0x8(%rbp),%xmm0
  40122f:	be bc 21 40 00       	mov    $0x4021bc,%esi
  401234:	bf 80 c4 fd 00       	mov    $0xfdc480,%edi
  401239:	b8 01 00 00 00       	mov    $0x1,%eax
  40123e:	e8 2d fd ff ff       	callq  400f70 <sprintf@plt>
   for(ii=0;buf[ii];ii++);
  401243:	c7 05 2b b2 bd 00 00 	movl   $0x0,0xbdb22b(%rip)        # fdc478 <ii>
  40124a:	00 00 00 
  40124d:	eb 0f                	jmp    40125e <F_dot_STR+0x55>
  40124f:	8b 05 23 b2 bd 00    	mov    0xbdb223(%rip),%eax        # fdc478 <ii>
  401255:	83 c0 01             	add    $0x1,%eax
  401258:	89 05 1a b2 bd 00    	mov    %eax,0xbdb21a(%rip)        # fdc478 <ii>
  40125e:	8b 05 14 b2 bd 00    	mov    0xbdb214(%rip),%eax        # fdc478 <ii>
  401264:	48 98                	cltq   
  401266:	0f b6 80 80 c4 fd 00 	movzbl 0xfdc480(%rax),%eax
  40126d:	84 c0                	test   %al,%al
  40126f:	75 de                	jne    40124f <F_dot_STR+0x46>
// write (0,buf, ii);
   return &buf;
  401271:	b8 80 c4 fd 00       	mov    $0xfdc480,%eax
}
  401276:	c9                   	leaveq 
  401277:	c3                   	retq   

0000000000401278 <f_store>:

void f_store( double * sp0 )
{  * sp0 = *FP++;
  401278:	55                   	push   %rbp
  401279:	48 89 e5             	mov    %rsp,%rbp
  40127c:	48 89 7d f8          	mov    %rdi,-0x8(%rbp)
  401280:	48 8b 15 79 92 bd 00 	mov    0xbd9279(%rip),%rdx        # fda500 <FP>
  401287:	48 8b 02             	mov    (%rdx),%rax
  40128a:	48 8b 4d f8          	mov    -0x8(%rbp),%rcx
  40128e:	48 89 01             	mov    %rax,(%rcx)
  401291:	48 8d 42 08          	lea    0x8(%rdx),%rax
  401295:	48 89 05 64 92 bd 00 	mov    %rax,0xbd9264(%rip)        # fda500 <FP>
}
  40129c:	5d                   	pop    %rbp
  40129d:	c3                   	retq   

000000000040129e <f_plus>:
void f_plus()
{   FP[1] += FP[0];
  40129e:	55                   	push   %rbp
  40129f:	48 89 e5             	mov    %rsp,%rbp
  4012a2:	48 8b 05 57 92 bd 00 	mov    0xbd9257(%rip),%rax        # fda500 <FP>
  4012a9:	48 8d 50 08          	lea    0x8(%rax),%rdx
  4012ad:	48 8b 05 4c 92 bd 00 	mov    0xbd924c(%rip),%rax        # fda500 <FP>
  4012b4:	48 83 c0 08          	add    $0x8,%rax
  4012b8:	f2 0f 10 08          	movsd  (%rax),%xmm1
  4012bc:	48 8b 05 3d 92 bd 00 	mov    0xbd923d(%rip),%rax        # fda500 <FP>
  4012c3:	f2 0f 10 00          	movsd  (%rax),%xmm0
  4012c7:	f2 0f 58 c1          	addsd  %xmm1,%xmm0
  4012cb:	f2 0f 11 02          	movsd  %xmm0,(%rdx)
    FP++;
  4012cf:	48 8b 05 2a 92 bd 00 	mov    0xbd922a(%rip),%rax        # fda500 <FP>
  4012d6:	48 83 c0 08          	add    $0x8,%rax
  4012da:	48 89 05 1f 92 bd 00 	mov    %rax,0xbd921f(%rip)        # fda500 <FP>
}
  4012e1:	5d                   	pop    %rbp
  4012e2:	c3                   	retq   

00000000004012e3 <f_minus>:
void f_minus()
{   FP[1] -= FP[0];
  4012e3:	55                   	push   %rbp
  4012e4:	48 89 e5             	mov    %rsp,%rbp
  4012e7:	48 8b 05 12 92 bd 00 	mov    0xbd9212(%rip),%rax        # fda500 <FP>
  4012ee:	48 8d 50 08          	lea    0x8(%rax),%rdx
  4012f2:	48 8b 05 07 92 bd 00 	mov    0xbd9207(%rip),%rax        # fda500 <FP>
  4012f9:	48 83 c0 08          	add    $0x8,%rax
  4012fd:	f2 0f 10 00          	movsd  (%rax),%xmm0
  401301:	48 8b 05 f8 91 bd 00 	mov    0xbd91f8(%rip),%rax        # fda500 <FP>
  401308:	f2 0f 10 08          	movsd  (%rax),%xmm1
  40130c:	f2 0f 5c c1          	subsd  %xmm1,%xmm0
  401310:	f2 0f 11 02          	movsd  %xmm0,(%rdx)
    FP++;
  401314:	48 8b 05 e5 91 bd 00 	mov    0xbd91e5(%rip),%rax        # fda500 <FP>
  40131b:	48 83 c0 08          	add    $0x8,%rax
  40131f:	48 89 05 da 91 bd 00 	mov    %rax,0xbd91da(%rip)        # fda500 <FP>
}
  401326:	5d                   	pop    %rbp
  401327:	c3                   	retq   

0000000000401328 <f_star>:

void f_star()
{   FP[1] *= FP[0];
  401328:	55                   	push   %rbp
  401329:	48 89 e5             	mov    %rsp,%rbp
  40132c:	48 8b 05 cd 91 bd 00 	mov    0xbd91cd(%rip),%rax        # fda500 <FP>
  401333:	48 8d 50 08          	lea    0x8(%rax),%rdx
  401337:	48 8b 05 c2 91 bd 00 	mov    0xbd91c2(%rip),%rax        # fda500 <FP>
  40133e:	48 83 c0 08          	add    $0x8,%rax
  401342:	f2 0f 10 08          	movsd  (%rax),%xmm1
  401346:	48 8b 05 b3 91 bd 00 	mov    0xbd91b3(%rip),%rax        # fda500 <FP>
  40134d:	f2 0f 10 00          	movsd  (%rax),%xmm0
  401351:	f2 0f 59 c1          	mulsd  %xmm1,%xmm0
  401355:	f2 0f 11 02          	movsd  %xmm0,(%rdx)
    FP++;
  401359:	48 8b 05 a0 91 bd 00 	mov    0xbd91a0(%rip),%rax        # fda500 <FP>
  401360:	48 83 c0 08          	add    $0x8,%rax
  401364:	48 89 05 95 91 bd 00 	mov    %rax,0xbd9195(%rip)        # fda500 <FP>
}
  40136b:	5d                   	pop    %rbp
  40136c:	c3                   	retq   

000000000040136d <f_slash>:

void f_slash()
{   FP[1] /= FP[0];
  40136d:	55                   	push   %rbp
  40136e:	48 89 e5             	mov    %rsp,%rbp
  401371:	48 8b 05 88 91 bd 00 	mov    0xbd9188(%rip),%rax        # fda500 <FP>
  401378:	48 8d 50 08          	lea    0x8(%rax),%rdx
  40137c:	48 8b 05 7d 91 bd 00 	mov    0xbd917d(%rip),%rax        # fda500 <FP>
  401383:	48 83 c0 08          	add    $0x8,%rax
  401387:	f2 0f 10 00          	movsd  (%rax),%xmm0
  40138b:	48 8b 05 6e 91 bd 00 	mov    0xbd916e(%rip),%rax        # fda500 <FP>
  401392:	f2 0f 10 08          	movsd  (%rax),%xmm1
  401396:	f2 0f 5e c1          	divsd  %xmm1,%xmm0
  40139a:	f2 0f 11 02          	movsd  %xmm0,(%rdx)
    FP++;
  40139e:	48 8b 05 5b 91 bd 00 	mov    0xbd915b(%rip),%rax        # fda500 <FP>
  4013a5:	48 83 c0 08          	add    $0x8,%rax
  4013a9:	48 89 05 50 91 bd 00 	mov    %rax,0xbd9150(%rip)        # fda500 <FP>
}
  4013b0:	5d                   	pop    %rbp
  4013b1:	c3                   	retq   

00000000004013b2 <f_zero_less>:

int f_zero_less()
{  return *FP++ < 0 ;
  4013b2:	55                   	push   %rbp
  4013b3:	48 89 e5             	mov    %rsp,%rbp
  4013b6:	48 8b 05 43 91 bd 00 	mov    0xbd9143(%rip),%rax        # fda500 <FP>
  4013bd:	f2 0f 10 08          	movsd  (%rax),%xmm1
  4013c1:	66 0f 57 c0          	xorpd  %xmm0,%xmm0
  4013c5:	66 0f 2e c1          	ucomisd %xmm1,%xmm0
  4013c9:	0f 97 c2             	seta   %dl
  4013cc:	0f b6 d2             	movzbl %dl,%edx
  4013cf:	48 83 c0 08          	add    $0x8,%rax
  4013d3:	48 89 05 26 91 bd 00 	mov    %rax,0xbd9126(%rip)        # fda500 <FP>
  4013da:	89 d0                	mov    %edx,%eax
}
  4013dc:	5d                   	pop    %rbp
  4013dd:	c3                   	retq   

00000000004013de <f_zero_equal>:
int f_zero_equal() 
{  return *FP++ < 0 ;
  4013de:	55                   	push   %rbp
  4013df:	48 89 e5             	mov    %rsp,%rbp
  4013e2:	48 8b 05 17 91 bd 00 	mov    0xbd9117(%rip),%rax        # fda500 <FP>
  4013e9:	f2 0f 10 08          	movsd  (%rax),%xmm1
  4013ed:	66 0f 57 c0          	xorpd  %xmm0,%xmm0
  4013f1:	66 0f 2e c1          	ucomisd %xmm1,%xmm0
  4013f5:	0f 97 c2             	seta   %dl
  4013f8:	0f b6 d2             	movzbl %dl,%edx
  4013fb:	48 83 c0 08          	add    $0x8,%rax
  4013ff:	48 89 05 fa 90 bd 00 	mov    %rax,0xbd90fa(%rip)        # fda500 <FP>
  401406:	89 d0                	mov    %edx,%eax
}
  401408:	5d                   	pop    %rbp
  401409:	c3                   	retq   

000000000040140a <f_less_than>:
int f_less_than()
{ int sp0;
  40140a:	55                   	push   %rbp
  40140b:	48 89 e5             	mov    %rsp,%rbp
 sp0 = FP[1] < FP[0] ;
  40140e:	48 8b 05 eb 90 bd 00 	mov    0xbd90eb(%rip),%rax        # fda500 <FP>
  401415:	48 83 c0 08          	add    $0x8,%rax
  401419:	f2 0f 10 08          	movsd  (%rax),%xmm1
  40141d:	48 8b 05 dc 90 bd 00 	mov    0xbd90dc(%rip),%rax        # fda500 <FP>
  401424:	f2 0f 10 00          	movsd  (%rax),%xmm0
  401428:	66 0f 2e c1          	ucomisd %xmm1,%xmm0
  40142c:	0f 97 c0             	seta   %al
  40142f:	0f b6 c0             	movzbl %al,%eax
  401432:	89 45 fc             	mov    %eax,-0x4(%rbp)
 FP += 2;
  401435:	48 8b 05 c4 90 bd 00 	mov    0xbd90c4(%rip),%rax        # fda500 <FP>
  40143c:	48 83 c0 10          	add    $0x10,%rax
  401440:	48 89 05 b9 90 bd 00 	mov    %rax,0xbd90b9(%rip)        # fda500 <FP>
 return sp0;
  401447:	8b 45 fc             	mov    -0x4(%rbp),%eax
}
  40144a:	5d                   	pop    %rbp
  40144b:	c3                   	retq   

000000000040144c <f_to_d>:

long long f_to_d()
{  return (long long)(*FP);
  40144c:	55                   	push   %rbp
  40144d:	48 89 e5             	mov    %rsp,%rbp
  401450:	48 8b 05 a9 90 bd 00 	mov    0xbd90a9(%rip),%rax        # fda500 <FP>
  401457:	f2 0f 10 00          	movsd  (%rax),%xmm0
  40145b:	f2 48 0f 2c c0       	cvttsd2si %xmm0,%rax
}
  401460:	5d                   	pop    %rbp
  401461:	c3                   	retq   

0000000000401462 <f_fetch>:

void f_fetch( double * sp0 )
{ *--FP = *sp0;
  401462:	55                   	push   %rbp
  401463:	48 89 e5             	mov    %rsp,%rbp
  401466:	48 89 7d f8          	mov    %rdi,-0x8(%rbp)
  40146a:	48 8b 05 8f 90 bd 00 	mov    0xbd908f(%rip),%rax        # fda500 <FP>
  401471:	48 83 e8 08          	sub    $0x8,%rax
  401475:	48 89 05 84 90 bd 00 	mov    %rax,0xbd9084(%rip)        # fda500 <FP>
  40147c:	48 8b 15 7d 90 bd 00 	mov    0xbd907d(%rip),%rdx        # fda500 <FP>
  401483:	48 8b 45 f8          	mov    -0x8(%rbp),%rax
  401487:	48 8b 00             	mov    (%rax),%rax
  40148a:	48 89 02             	mov    %rax,(%rdx)
}
  40148d:	5d                   	pop    %rbp
  40148e:	c3                   	retq   

000000000040148f <ss_to_f>:
void ss_to_f ( int sp1, int sp0)
{ FP--;
  40148f:	55                   	push   %rbp
  401490:	48 89 e5             	mov    %rsp,%rbp
  401493:	89 7d fc             	mov    %edi,-0x4(%rbp)
  401496:	89 75 f8             	mov    %esi,-0x8(%rbp)
  401499:	48 8b 05 60 90 bd 00 	mov    0xbd9060(%rip),%rax        # fda500 <FP>
  4014a0:	48 83 e8 08          	sub    $0x8,%rax
  4014a4:	48 89 05 55 90 bd 00 	mov    %rax,0xbd9055(%rip)        # fda500 <FP>
  FP[0] = (double)( ((long long)(sp0)>>32) + sp1 );
  4014ab:	48 8b 05 4e 90 bd 00 	mov    0xbd904e(%rip),%rax        # fda500 <FP>
  4014b2:	8b 55 f8             	mov    -0x8(%rbp),%edx
  4014b5:	48 63 d2             	movslq %edx,%rdx
  4014b8:	48 89 d1             	mov    %rdx,%rcx
  4014bb:	48 c1 f9 20          	sar    $0x20,%rcx
  4014bf:	8b 55 fc             	mov    -0x4(%rbp),%edx
  4014c2:	48 63 d2             	movslq %edx,%rdx
  4014c5:	48 01 ca             	add    %rcx,%rdx
  4014c8:	f2 48 0f 2a c2       	cvtsi2sd %rdx,%xmm0
  4014cd:	f2 0f 11 00          	movsd  %xmm0,(%rax)
}
  4014d1:	5d                   	pop    %rbp
  4014d2:	c3                   	retq   

00000000004014d3 <d_to_f>:

void d_to_f ( long long sp)
{ FP--;
  4014d3:	55                   	push   %rbp
  4014d4:	48 89 e5             	mov    %rsp,%rbp
  4014d7:	48 89 7d f8          	mov    %rdi,-0x8(%rbp)
  4014db:	48 8b 05 1e 90 bd 00 	mov    0xbd901e(%rip),%rax        # fda500 <FP>
  4014e2:	48 83 e8 08          	sub    $0x8,%rax
  4014e6:	48 89 05 13 90 bd 00 	mov    %rax,0xbd9013(%rip)        # fda500 <FP>
  FP[0] = (double)sp;
  4014ed:	48 8b 05 0c 90 bd 00 	mov    0xbd900c(%rip),%rax        # fda500 <FP>
  4014f4:	f2 48 0f 2a 45 f8    	cvtsi2sdq -0x8(%rbp),%xmm0
  4014fa:	f2 0f 11 00          	movsd  %xmm0,(%rax)
}
  4014fe:	5d                   	pop    %rbp
  4014ff:	c3                   	retq   

0000000000401500 <FCELL_>:

int FCELL_()
{  return sizeof(double) ;
  401500:	55                   	push   %rbp
  401501:	48 89 e5             	mov    %rsp,%rbp
  401504:	b8 08 00 00 00       	mov    $0x8,%eax
}
  401509:	5d                   	pop    %rbp
  40150a:	c3                   	retq   

000000000040150b <f_init>:

void f_init()
{ FP=&FPBuf[FPBufSize-2];
  40150b:	55                   	push   %rbp
  40150c:	48 89 e5             	mov    %rsp,%rbp
  40150f:	48 c7 05 e6 8f bd 00 	movq   $0xfdc460,0xbd8fe6(%rip)        # fda500 <FP>
  401516:	60 c4 fd 00 

}
  40151a:	5d                   	pop    %rbp
  40151b:	c3                   	retq   

000000000040151c <f_tst>:

void f_tst()
{	_1e();
  40151c:	55                   	push   %rbp
  40151d:	48 89 e5             	mov    %rsp,%rbp
  401520:	b8 00 00 00 00       	mov    $0x0,%eax
  401525:	e8 f1 27 20 00       	callq  603d1b <_1e>
	Fdot();
  40152a:	b8 00 00 00 00       	mov    $0x0,%eax
  40152f:	e8 ec b4 20 00       	callq  60ca20 <Fdot>
}
  401534:	5d                   	pop    %rbp
  401535:	c3                   	retq   

0000000000401536 <f_tst1>:

void f_tst1()
{	f_tst();
  401536:	55                   	push   %rbp
  401537:	48 89 e5             	mov    %rsp,%rbp
  40153a:	b8 00 00 00 00       	mov    $0x0,%eax
  40153f:	e8 d8 ff ff ff       	callq  40151c <f_tst>
}
  401544:	5d                   	pop    %rbp
  401545:	c3                   	retq   

0000000000401546 <f_tst2>:

void f_tst2()
{	f_tst1();
  401546:	55                   	push   %rbp
  401547:	48 89 e5             	mov    %rsp,%rbp
  40154a:	b8 00 00 00 00       	mov    $0x0,%eax
  40154f:	e8 e2 ff ff ff       	callq  401536 <f_tst1>
}
  401554:	5d                   	pop    %rbp
  401555:	c3                   	retq   

0000000000401556 <RWGet>:

char * ARGV1;
//int AAAA=444;

int RWGet()
{  return O_RDWR|O_BINARY ;
  401556:	55                   	push   %rbp
  401557:	48 89 e5             	mov    %rsp,%rbp
  40155a:	b8 02 00 00 00       	mov    $0x2,%eax
}
  40155f:	5d                   	pop    %rbp
  401560:	c3                   	retq   

0000000000401561 <ROGet>:
int ROGet()
{  return O_RDONLY|O_BINARY ;
  401561:	55                   	push   %rbp
  401562:	48 89 e5             	mov    %rsp,%rbp
  401565:	b8 00 00 00 00       	mov    $0x0,%eax
 }
  40156a:	5d                   	pop    %rbp
  40156b:	c3                   	retq   

000000000040156c <WOGet>:
int WOGet()
{  return O_WRONLY|O_BINARY ;
  40156c:	55                   	push   %rbp
  40156d:	48 89 e5             	mov    %rsp,%rbp
  401570:	b8 01 00 00 00       	mov    $0x1,%eax
}
  401575:	5d                   	pop    %rbp
  401576:	c3                   	retq   

0000000000401577 <SEEK_SETGet>:

int SEEK_SETGet() { return SEEK_SET ; }
  401577:	55                   	push   %rbp
  401578:	48 89 e5             	mov    %rsp,%rbp
  40157b:	b8 00 00 00 00       	mov    $0x0,%eax
  401580:	5d                   	pop    %rbp
  401581:	c3                   	retq   

0000000000401582 <O_CREATGet>:
int O_CREATGet() {
  401582:	55                   	push   %rbp
  401583:	48 89 e5             	mov    %rsp,%rbp
 return O_CREAT ;
  401586:	b8 40 00 00 00       	mov    $0x40,%eax
 }
  40158b:	5d                   	pop    %rbp
  40158c:	c3                   	retq   

000000000040158d <HPOINT>:
int add(int aa,int bb)
{ return aa+bb;
} */

void HPOINT(int x)
{   printf("%x ",x);
  40158d:	55                   	push   %rbp
  40158e:	48 89 e5             	mov    %rsp,%rbp
  401591:	48 83 ec 10          	sub    $0x10,%rsp
  401595:	89 7d fc             	mov    %edi,-0x4(%rbp)
  401598:	8b 45 fc             	mov    -0x4(%rbp),%eax
  40159b:	89 c6                	mov    %eax,%esi
  40159d:	bf c0 21 40 00       	mov    $0x4021c0,%edi
  4015a2:	b8 00 00 00 00       	mov    $0x0,%eax
  4015a7:	e8 64 f8 ff ff       	callq  400e10 <printf@plt>
}
  4015ac:	c9                   	leaveq 
  4015ad:	c3                   	retq   

00000000004015ae <mtell>:

int	mtell(int _fd)
{ return lseek(_fd, (off_t) 0, SEEK_CUR); }
  4015ae:	55                   	push   %rbp
  4015af:	48 89 e5             	mov    %rsp,%rbp
  4015b2:	48 83 ec 10          	sub    $0x10,%rsp
  4015b6:	89 7d fc             	mov    %edi,-0x4(%rbp)
  4015b9:	8b 45 fc             	mov    -0x4(%rbp),%eax
  4015bc:	ba 01 00 00 00       	mov    $0x1,%edx
  4015c1:	be 00 00 00 00       	mov    $0x0,%esi
  4015c6:	89 c7                	mov    %eax,%edi
  4015c8:	e8 63 f8 ff ff       	callq  400e30 <lseek@plt>
  4015cd:	c9                   	leaveq 
  4015ce:	c3                   	retq   

00000000004015cf <rmlseek>:

int	rmlseek(int _fd, int off1)
{ return lseek(_fd, (off_t) off1, SEEK_SET); }
  4015cf:	55                   	push   %rbp
  4015d0:	48 89 e5             	mov    %rsp,%rbp
  4015d3:	48 83 ec 10          	sub    $0x10,%rsp
  4015d7:	89 7d fc             	mov    %edi,-0x4(%rbp)
  4015da:	89 75 f8             	mov    %esi,-0x8(%rbp)
  4015dd:	8b 45 f8             	mov    -0x8(%rbp),%eax
  4015e0:	48 63 c8             	movslq %eax,%rcx
  4015e3:	8b 45 fc             	mov    -0x4(%rbp),%eax
  4015e6:	ba 00 00 00 00       	mov    $0x0,%edx
  4015eb:	48 89 ce             	mov    %rcx,%rsi
  4015ee:	89 c7                	mov    %eax,%edi
  4015f0:	e8 3b f8 ff ff       	callq  400e30 <lseek@plt>
  4015f5:	c9                   	leaveq 
  4015f6:	c3                   	retq   

00000000004015f7 <mlseek>:

int	mlseek(int _fd, int off1, int mode)
{ return lseek(_fd, (off_t) off1, mode); }
  4015f7:	55                   	push   %rbp
  4015f8:	48 89 e5             	mov    %rsp,%rbp
  4015fb:	48 83 ec 10          	sub    $0x10,%rsp
  4015ff:	89 7d fc             	mov    %edi,-0x4(%rbp)
  401602:	89 75 f8             	mov    %esi,-0x8(%rbp)
  401605:	89 55 f4             	mov    %edx,-0xc(%rbp)
  401608:	8b 45 f8             	mov    -0x8(%rbp),%eax
  40160b:	48 63 c8             	movslq %eax,%rcx
  40160e:	8b 55 f4             	mov    -0xc(%rbp),%edx
  401611:	8b 45 fc             	mov    -0x4(%rbp),%eax
  401614:	48 89 ce             	mov    %rcx,%rsi
  401617:	89 c7                	mov    %eax,%edi
  401619:	e8 12 f8 ff ff       	callq  400e30 <lseek@plt>
  40161e:	c9                   	leaveq 
  40161f:	c3                   	retq   

0000000000401620 <LOPEN>:

int LOPEN(const char *pathname, int flags)
{ return open(pathname, flags|O_BINARY,S_IREAD | S_IWRITE);
  401620:	55                   	push   %rbp
  401621:	48 89 e5             	mov    %rsp,%rbp
  401624:	48 83 ec 10          	sub    $0x10,%rsp
  401628:	48 89 7d f8          	mov    %rdi,-0x8(%rbp)
  40162c:	89 75 f4             	mov    %esi,-0xc(%rbp)
  40162f:	8b 4d f4             	mov    -0xc(%rbp),%ecx
  401632:	48 8b 45 f8          	mov    -0x8(%rbp),%rax
  401636:	ba 01 00 00 00       	mov    $0x1,%edx
  40163b:	89 ce                	mov    %ecx,%esi
  40163d:	48 89 c7             	mov    %rax,%rdi
  401640:	b8 00 00 00 00       	mov    $0x0,%eax
  401645:	e8 e6 f8 ff ff       	callq  400f30 <open@plt>
}
  40164a:	c9                   	leaveq 
  40164b:	c3                   	retq   

000000000040164c <LACCEPT>:

int LACCEPT(char *p,int n)
{ register char *q;
  40164c:	55                   	push   %rbp
  40164d:	48 89 e5             	mov    %rsp,%rbp
  401650:	53                   	push   %rbx
  401651:	48 83 ec 18          	sub    $0x18,%rsp
  401655:	48 89 7d e8          	mov    %rdi,-0x18(%rbp)
  401659:	89 75 e4             	mov    %esi,-0x1c(%rbp)
  q = fgets (p, n, stdin);
  40165c:	48 8b 15 5d be 20 00 	mov    0x20be5d(%rip),%rdx        # 60d4c0 <stdin@@GLIBC_2.2.5>
  401663:	8b 4d e4             	mov    -0x1c(%rbp),%ecx
  401666:	48 8b 45 e8          	mov    -0x18(%rbp),%rax
  40166a:	89 ce                	mov    %ecx,%esi
  40166c:	48 89 c7             	mov    %rax,%rdi
  40166f:	e8 2c f8 ff ff       	callq  400ea0 <fgets@plt>
  401674:	48 89 c3             	mov    %rax,%rbx
  q = strrchr (p, '\n');
  401677:	48 8b 45 e8          	mov    -0x18(%rbp),%rax
  40167b:	be 0a 00 00 00       	mov    $0xa,%esi
  401680:	48 89 c7             	mov    %rax,%rdi
  401683:	e8 98 f7 ff ff       	callq  400e20 <strrchr@plt>
  401688:	48 89 c3             	mov    %rax,%rbx
  if (q) *q = '\0';
  40168b:	48 85 db             	test   %rbx,%rbx
  40168e:	74 03                	je     401693 <LACCEPT+0x47>
  401690:	c6 03 00             	movb   $0x0,(%rbx)
  return strlen (p);
  401693:	48 8b 45 e8          	mov    -0x18(%rbp),%rax
  401697:	48 89 c7             	mov    %rax,%rdi
  40169a:	e8 41 f7 ff ff       	callq  400de0 <strlen@plt>
}
  40169f:	48 83 c4 18          	add    $0x18,%rsp
  4016a3:	5b                   	pop    %rbx
  4016a4:	5d                   	pop    %rbp
  4016a5:	c3                   	retq   

00000000004016a6 <LARGV1>:

char* LARGV1() {return ARGV1;}
  4016a6:	55                   	push   %rbp
  4016a7:	48 89 e5             	mov    %rsp,%rbp
  4016aa:	48 8b 05 bf ad bd 00 	mov    0xbdadbf(%rip),%rax        # fdc470 <ARGV1>
  4016b1:	5d                   	pop    %rbp
  4016b2:	c3                   	retq   

00000000004016b3 <LZTYPE>:

void LZTYPE(char *p)
{ printf("%s\n",p);
  4016b3:	55                   	push   %rbp
  4016b4:	48 89 e5             	mov    %rsp,%rbp
  4016b7:	48 83 ec 10          	sub    $0x10,%rsp
  4016bb:	48 89 7d f8          	mov    %rdi,-0x8(%rbp)
  4016bf:	48 8b 45 f8          	mov    -0x8(%rbp),%rax
  4016c3:	48 89 c7             	mov    %rax,%rdi
  4016c6:	e8 b5 f6 ff ff       	callq  400d80 <puts@plt>
}
  4016cb:	c9                   	leaveq 
  4016cc:	c3                   	retq   

00000000004016cd <LBYE>:

void LBYE()
{  exit(0); }
  4016cd:	55                   	push   %rbp
  4016ce:	48 89 e5             	mov    %rsp,%rbp
  4016d1:	bf 00 00 00 00       	mov    $0x0,%edi
  4016d6:	e8 b5 f8 ff ff       	callq  400f90 <exit@plt>

00000000004016db <save_term>:

struct termios tios0;
char key_query_char = 0;

void save_term ()
{
  4016db:	55                   	push   %rbp
  4016dc:	48 89 e5             	mov    %rsp,%rbp
    tcgetattr(0, &tios0);
  4016df:	be c0 c4 fd 00       	mov    $0xfdc4c0,%esi
  4016e4:	bf 00 00 00 00       	mov    $0x0,%edi
  4016e9:	e8 22 f8 ff ff       	callq  400f10 <tcgetattr@plt>
}
  4016ee:	5d                   	pop    %rbp
  4016ef:	c3                   	retq   

00000000004016f0 <restore_term>:

void restore_term ()
{
  4016f0:	55                   	push   %rbp
  4016f1:	48 89 e5             	mov    %rsp,%rbp
    tcsetattr(0, TCSANOW, &tios0);
  4016f4:	ba c0 c4 fd 00       	mov    $0xfdc4c0,%edx
  4016f9:	be 00 00 00 00       	mov    $0x0,%esi
  4016fe:	bf 00 00 00 00       	mov    $0x0,%edi
  401703:	e8 18 f8 ff ff       	callq  400f20 <tcsetattr@plt>
}
  401708:	5d                   	pop    %rbp
  401709:	c3                   	retq   

000000000040170a <echo_off>:

void echo_off ()
{
  40170a:	55                   	push   %rbp
  40170b:	48 89 e5             	mov    %rsp,%rbp
  40170e:	48 83 ec 40          	sub    $0x40,%rsp
  struct termios t;
  tcgetattr(0, &t);
  401712:	48 8d 45 c0          	lea    -0x40(%rbp),%rax
  401716:	48 89 c6             	mov    %rax,%rsi
  401719:	bf 00 00 00 00       	mov    $0x0,%edi
  40171e:	e8 ed f7 ff ff       	callq  400f10 <tcgetattr@plt>
  t.c_lflag &= ~ECHO;
  401723:	8b 45 cc             	mov    -0x34(%rbp),%eax
  401726:	83 e0 f7             	and    $0xfffffff7,%eax
  401729:	89 45 cc             	mov    %eax,-0x34(%rbp)
  tcsetattr(0, TCSANOW, &t);
  40172c:	48 8d 45 c0          	lea    -0x40(%rbp),%rax
  401730:	48 89 c2             	mov    %rax,%rdx
  401733:	be 00 00 00 00       	mov    $0x0,%esi
  401738:	bf 00 00 00 00       	mov    $0x0,%edi
  40173d:	e8 de f7 ff ff       	callq  400f20 <tcsetattr@plt>
}
  401742:	c9                   	leaveq 
  401743:	c3                   	retq   

0000000000401744 <echo_on>:

void echo_on ()
{
  401744:	55                   	push   %rbp
  401745:	48 89 e5             	mov    %rsp,%rbp
  401748:	48 83 ec 40          	sub    $0x40,%rsp
  struct termios t;
  tcgetattr(0, &t);
  40174c:	48 8d 45 c0          	lea    -0x40(%rbp),%rax
  401750:	48 89 c6             	mov    %rax,%rsi
  401753:	bf 00 00 00 00       	mov    $0x0,%edi
  401758:	e8 b3 f7 ff ff       	callq  400f10 <tcgetattr@plt>
  t.c_lflag |= ECHO;
  40175d:	8b 45 cc             	mov    -0x34(%rbp),%eax
  401760:	83 c8 08             	or     $0x8,%eax
  401763:	89 45 cc             	mov    %eax,-0x34(%rbp)
  tcsetattr(0, TCSANOW, &t);
  401766:	48 8d 45 c0          	lea    -0x40(%rbp),%rax
  40176a:	48 89 c2             	mov    %rax,%rdx
  40176d:	be 00 00 00 00       	mov    $0x0,%esi
  401772:	bf 00 00 00 00       	mov    $0x0,%edi
  401777:	e8 a4 f7 ff ff       	callq  400f20 <tcsetattr@plt>
}
  40177c:	c9                   	leaveq 
  40177d:	c3                   	retq   

000000000040177e <C_KEY>:




int C_KEY ()
{
  40177e:	55                   	push   %rbp
  40177f:	48 89 e5             	mov    %rsp,%rbp
  401782:	48 81 ec 90 00 00 00 	sub    $0x90,%rsp

  char ch;
  int n;
  struct termios t1, t2;

  if (key_query_char)
  401789:	0f b6 05 3c bd 20 00 	movzbl 0x20bd3c(%rip),%eax        # 60d4cc <key_query_char>
  401790:	84 c0                	test   %al,%al
  401792:	74 16                	je     4017aa <C_KEY+0x2c>
    {
      ch = key_query_char;
  401794:	0f b6 05 31 bd 20 00 	movzbl 0x20bd31(%rip),%eax        # 60d4cc <key_query_char>
  40179b:	88 45 fb             	mov    %al,-0x5(%rbp)
      key_query_char = 0;
  40179e:	c6 05 27 bd 20 00 00 	movb   $0x0,0x20bd27(%rip)        # 60d4cc <key_query_char>
  4017a5:	e9 d2 00 00 00       	jmpq   40187c <C_KEY+0xfe>
    }
  else
    {
      tcgetattr(0, &t1);
  4017aa:	48 8d 45 b0          	lea    -0x50(%rbp),%rax
  4017ae:	48 89 c6             	mov    %rax,%rsi
  4017b1:	bf 00 00 00 00       	mov    $0x0,%edi
  4017b6:	e8 55 f7 ff ff       	callq  400f10 <tcgetattr@plt>
      t2 = t1;
  4017bb:	48 8b 45 b0          	mov    -0x50(%rbp),%rax
  4017bf:	48 89 85 70 ff ff ff 	mov    %rax,-0x90(%rbp)
  4017c6:	48 8b 45 b8          	mov    -0x48(%rbp),%rax
  4017ca:	48 89 85 78 ff ff ff 	mov    %rax,-0x88(%rbp)
  4017d1:	48 8b 45 c0          	mov    -0x40(%rbp),%rax
  4017d5:	48 89 45 80          	mov    %rax,-0x80(%rbp)
  4017d9:	48 8b 45 c8          	mov    -0x38(%rbp),%rax
  4017dd:	48 89 45 88          	mov    %rax,-0x78(%rbp)
  4017e1:	48 8b 45 d0          	mov    -0x30(%rbp),%rax
  4017e5:	48 89 45 90          	mov    %rax,-0x70(%rbp)
  4017e9:	48 8b 45 d8          	mov    -0x28(%rbp),%rax
  4017ed:	48 89 45 98          	mov    %rax,-0x68(%rbp)
  4017f1:	48 8b 45 e0          	mov    -0x20(%rbp),%rax
  4017f5:	48 89 45 a0          	mov    %rax,-0x60(%rbp)
  4017f9:	8b 45 e8             	mov    -0x18(%rbp),%eax
  4017fc:	89 45 a8             	mov    %eax,-0x58(%rbp)
      t2.c_lflag &= ~ICANON;
  4017ff:	8b 85 7c ff ff ff    	mov    -0x84(%rbp),%eax
  401805:	83 e0 fd             	and    $0xfffffffd,%eax
  401808:	89 85 7c ff ff ff    	mov    %eax,-0x84(%rbp)
      t2.c_lflag &= ~ECHO;
  40180e:	8b 85 7c ff ff ff    	mov    -0x84(%rbp),%eax
  401814:	83 e0 f7             	and    $0xfffffff7,%eax
  401817:	89 85 7c ff ff ff    	mov    %eax,-0x84(%rbp)
//      t2.c_lflag &= ~ISIG;
      t2.c_lflag |= ISIG;
  40181d:	8b 85 7c ff ff ff    	mov    -0x84(%rbp),%eax
  401823:	83 c8 01             	or     $0x1,%eax
  401826:	89 85 7c ff ff ff    	mov    %eax,-0x84(%rbp)
      t2.c_cc[VMIN] = 1;
  40182c:	c6 45 87 01          	movb   $0x1,-0x79(%rbp)
      t2.c_cc[VTIME] = 0;
  401830:	c6 45 86 00          	movb   $0x0,-0x7a(%rbp)
      tcsetattr(0, TCSANOW, &t2);
  401834:	48 8d 85 70 ff ff ff 	lea    -0x90(%rbp),%rax
  40183b:	48 89 c2             	mov    %rax,%rdx
  40183e:	be 00 00 00 00       	mov    $0x0,%esi
  401843:	bf 00 00 00 00       	mov    $0x0,%edi
  401848:	e8 d3 f6 ff ff       	callq  400f20 <tcsetattr@plt>

//      do {
	n = read(0, &ch, 1);
  40184d:	48 8d 45 fb          	lea    -0x5(%rbp),%rax
  401851:	ba 01 00 00 00       	mov    $0x1,%edx
  401856:	48 89 c6             	mov    %rax,%rsi
  401859:	bf 00 00 00 00       	mov    $0x0,%edi
  40185e:	e8 1d f6 ff ff       	callq  400e80 <read@plt>
  401863:	89 45 fc             	mov    %eax,-0x4(%rbp)
//      } while (n != 1);

      tcsetattr(0, TCSANOW, &t1);
  401866:	48 8d 45 b0          	lea    -0x50(%rbp),%rax
  40186a:	48 89 c2             	mov    %rax,%rdx
  40186d:	be 00 00 00 00       	mov    $0x0,%esi
  401872:	bf 00 00 00 00       	mov    $0x0,%edi
  401877:	e8 a4 f6 ff ff       	callq  400f20 <tcsetattr@plt>
    }
 
  return ch;
  40187c:	0f b6 45 fb          	movzbl -0x5(%rbp),%eax
  401880:	0f be c0             	movsbl %al,%eax
}
  401883:	c9                   	leaveq 
  401884:	c3                   	retq   

0000000000401885 <C_KEYQUERY>:
/*----------------------------------------------------------*/

int C_KEYQUERY ()
{
  401885:	55                   	push   %rbp
  401886:	48 89 e5             	mov    %rsp,%rbp
  401889:	48 81 ec 90 00 00 00 	sub    $0x90,%rsp
  /* stack: ( a -- b | return true if a key is available ) */

  char ch = 0;
  401890:	c6 45 fb 00          	movb   $0x0,-0x5(%rbp)
  int chq;
  struct termios t1, t2;

  if (key_query_char)  return -1;
  401894:	0f b6 05 31 bc 20 00 	movzbl 0x20bc31(%rip),%eax        # 60d4cc <key_query_char>
  40189b:	84 c0                	test   %al,%al
  40189d:	74 0a                	je     4018a9 <C_KEYQUERY+0x24>
  40189f:	b8 ff ff ff ff       	mov    $0xffffffff,%eax
  4018a4:	e9 e9 00 00 00       	jmpq   401992 <C_KEYQUERY+0x10d>

      tcgetattr(0, &t1);
  4018a9:	48 8d 45 b0          	lea    -0x50(%rbp),%rax
  4018ad:	48 89 c6             	mov    %rax,%rsi
  4018b0:	bf 00 00 00 00       	mov    $0x0,%edi
  4018b5:	e8 56 f6 ff ff       	callq  400f10 <tcgetattr@plt>
      t2 = t1;
  4018ba:	48 8b 45 b0          	mov    -0x50(%rbp),%rax
  4018be:	48 89 85 70 ff ff ff 	mov    %rax,-0x90(%rbp)
  4018c5:	48 8b 45 b8          	mov    -0x48(%rbp),%rax
  4018c9:	48 89 85 78 ff ff ff 	mov    %rax,-0x88(%rbp)
  4018d0:	48 8b 45 c0          	mov    -0x40(%rbp),%rax
  4018d4:	48 89 45 80          	mov    %rax,-0x80(%rbp)
  4018d8:	48 8b 45 c8          	mov    -0x38(%rbp),%rax
  4018dc:	48 89 45 88          	mov    %rax,-0x78(%rbp)
  4018e0:	48 8b 45 d0          	mov    -0x30(%rbp),%rax
  4018e4:	48 89 45 90          	mov    %rax,-0x70(%rbp)
  4018e8:	48 8b 45 d8          	mov    -0x28(%rbp),%rax
  4018ec:	48 89 45 98          	mov    %rax,-0x68(%rbp)
  4018f0:	48 8b 45 e0          	mov    -0x20(%rbp),%rax
  4018f4:	48 89 45 a0          	mov    %rax,-0x60(%rbp)
  4018f8:	8b 45 e8             	mov    -0x18(%rbp),%eax
  4018fb:	89 45 a8             	mov    %eax,-0x58(%rbp)
      t2.c_lflag &= ~ICANON;
  4018fe:	8b 85 7c ff ff ff    	mov    -0x84(%rbp),%eax
  401904:	83 e0 fd             	and    $0xfffffffd,%eax
  401907:	89 85 7c ff ff ff    	mov    %eax,-0x84(%rbp)
      t2.c_lflag &= ~ECHO;
  40190d:	8b 85 7c ff ff ff    	mov    -0x84(%rbp),%eax
  401913:	83 e0 f7             	and    $0xfffffff7,%eax
  401916:	89 85 7c ff ff ff    	mov    %eax,-0x84(%rbp)
      t2.c_cc[VMIN] = 0;
  40191c:	c6 45 87 00          	movb   $0x0,-0x79(%rbp)
      t2.c_cc[VTIME] = 0;
  401920:	c6 45 86 00          	movb   $0x0,-0x7a(%rbp)
      tcsetattr(0, TCSANOW, &t2);
  401924:	48 8d 85 70 ff ff ff 	lea    -0x90(%rbp),%rax
  40192b:	48 89 c2             	mov    %rax,%rdx
  40192e:	be 00 00 00 00       	mov    $0x0,%esi
  401933:	bf 00 00 00 00       	mov    $0x0,%edi
  401938:	e8 e3 f5 ff ff       	callq  400f20 <tcsetattr@plt>

      chq = read(0, &ch, 1) ? -1 : 0;
  40193d:	48 8d 45 fb          	lea    -0x5(%rbp),%rax
  401941:	ba 01 00 00 00       	mov    $0x1,%edx
  401946:	48 89 c6             	mov    %rax,%rsi
  401949:	bf 00 00 00 00       	mov    $0x0,%edi
  40194e:	e8 2d f5 ff ff       	callq  400e80 <read@plt>
  401953:	48 85 c0             	test   %rax,%rax
  401956:	74 07                	je     40195f <C_KEYQUERY+0xda>
  401958:	b8 ff ff ff ff       	mov    $0xffffffff,%eax
  40195d:	eb 05                	jmp    401964 <C_KEYQUERY+0xdf>
  40195f:	b8 00 00 00 00       	mov    $0x0,%eax
  401964:	89 45 fc             	mov    %eax,-0x4(%rbp)
      if (ch) key_query_char = ch;  
  401967:	0f b6 45 fb          	movzbl -0x5(%rbp),%eax
  40196b:	84 c0                	test   %al,%al
  40196d:	74 0a                	je     401979 <C_KEYQUERY+0xf4>
  40196f:	0f b6 45 fb          	movzbl -0x5(%rbp),%eax
  401973:	88 05 53 bb 20 00    	mov    %al,0x20bb53(%rip)        # 60d4cc <key_query_char>
      tcsetattr(0, TCSANOW, &t1);
  401979:	48 8d 45 b0          	lea    -0x50(%rbp),%rax
  40197d:	48 89 c2             	mov    %rax,%rdx
  401980:	be 00 00 00 00       	mov    $0x0,%esi
  401985:	bf 00 00 00 00       	mov    $0x0,%edi
  40198a:	e8 91 f5 ff ff       	callq  400f20 <tcsetattr@plt>

  return chq;
  40198f:	8b 45 fc             	mov    -0x4(%rbp),%eax
}      
  401992:	c9                   	leaveq 
  401993:	c3                   	retq   

0000000000401994 <C_ACCEPT>:
/*----------------------------------------------------------*/

int C_ACCEPT (char *cp, int n1 )
{
  401994:	55                   	push   %rbp
  401995:	48 89 e5             	mov    %rsp,%rbp
  401998:	48 81 ec b0 00 00 00 	sub    $0xb0,%rsp
  40199f:	48 89 bd 58 ff ff ff 	mov    %rdi,-0xa8(%rbp)
  4019a6:	89 b5 54 ff ff ff    	mov    %esi,-0xac(%rbp)
  /* stack: ( a n1 -- n2 | wait for n characters to be received ) */

  char ch,  *cpstart, *bksp = "\010 \010";
  4019ac:	48 c7 45 f0 c4 21 40 	movq   $0x4021c4,-0x10(%rbp)
  4019b3:	00 
  int n2, nr;
  struct termios t1, t2;

  cpstart = cp;
  4019b4:	48 8b 85 58 ff ff ff 	mov    -0xa8(%rbp),%rax
  4019bb:	48 89 45 e8          	mov    %rax,-0x18(%rbp)

  tcgetattr(0, &t1);
  4019bf:	48 8d 45 a0          	lea    -0x60(%rbp),%rax
  4019c3:	48 89 c6             	mov    %rax,%rsi
  4019c6:	bf 00 00 00 00       	mov    $0x0,%edi
  4019cb:	e8 40 f5 ff ff       	callq  400f10 <tcgetattr@plt>
  t2 = t1;
  4019d0:	48 8b 45 a0          	mov    -0x60(%rbp),%rax
  4019d4:	48 89 85 60 ff ff ff 	mov    %rax,-0xa0(%rbp)
  4019db:	48 8b 45 a8          	mov    -0x58(%rbp),%rax
  4019df:	48 89 85 68 ff ff ff 	mov    %rax,-0x98(%rbp)
  4019e6:	48 8b 45 b0          	mov    -0x50(%rbp),%rax
  4019ea:	48 89 85 70 ff ff ff 	mov    %rax,-0x90(%rbp)
  4019f1:	48 8b 45 b8          	mov    -0x48(%rbp),%rax
  4019f5:	48 89 85 78 ff ff ff 	mov    %rax,-0x88(%rbp)
  4019fc:	48 8b 45 c0          	mov    -0x40(%rbp),%rax
  401a00:	48 89 45 80          	mov    %rax,-0x80(%rbp)
  401a04:	48 8b 45 c8          	mov    -0x38(%rbp),%rax
  401a08:	48 89 45 88          	mov    %rax,-0x78(%rbp)
  401a0c:	48 8b 45 d0          	mov    -0x30(%rbp),%rax
  401a10:	48 89 45 90          	mov    %rax,-0x70(%rbp)
  401a14:	8b 45 d8             	mov    -0x28(%rbp),%eax
  401a17:	89 45 98             	mov    %eax,-0x68(%rbp)
  t2.c_lflag &= ~ICANON;
  401a1a:	8b 85 6c ff ff ff    	mov    -0x94(%rbp),%eax
  401a20:	83 e0 fd             	and    $0xfffffffd,%eax
  401a23:	89 85 6c ff ff ff    	mov    %eax,-0x94(%rbp)
  t2.c_lflag &= ~ECHO;
  401a29:	8b 85 6c ff ff ff    	mov    -0x94(%rbp),%eax
  401a2f:	83 e0 f7             	and    $0xfffffff7,%eax
  401a32:	89 85 6c ff ff ff    	mov    %eax,-0x94(%rbp)
  t2.c_lflag &= PENDIN;
  401a38:	8b 85 6c ff ff ff    	mov    -0x94(%rbp),%eax
  401a3e:	25 00 40 00 00       	and    $0x4000,%eax
  401a43:	89 85 6c ff ff ff    	mov    %eax,-0x94(%rbp)

  t2.c_cc[VMIN] = 1;
  401a49:	c6 85 77 ff ff ff 01 	movb   $0x1,-0x89(%rbp)
  t2.c_cc[VTIME] = 0;
  401a50:	c6 85 76 ff ff ff 00 	movb   $0x0,-0x8a(%rbp)
  tcsetattr(0, TCSANOW, &t2);
  401a57:	48 8d 85 60 ff ff ff 	lea    -0xa0(%rbp),%rax
  401a5e:	48 89 c2             	mov    %rax,%rdx
  401a61:	be 00 00 00 00       	mov    $0x0,%esi
  401a66:	bf 00 00 00 00       	mov    $0x0,%edi
  401a6b:	e8 b0 f4 ff ff       	callq  400f20 <tcsetattr@plt>


  n2 = 0;
  401a70:	c7 45 fc 00 00 00 00 	movl   $0x0,-0x4(%rbp)
  while (n2 < n1)
  401a77:	e9 b4 00 00 00       	jmpq   401b30 <C_ACCEPT+0x19c>
    {
      nr = read (0, cp, 1);
  401a7c:	48 8b 85 58 ff ff ff 	mov    -0xa8(%rbp),%rax
  401a83:	ba 01 00 00 00       	mov    $0x1,%edx
  401a88:	48 89 c6             	mov    %rax,%rsi
  401a8b:	bf 00 00 00 00       	mov    $0x0,%edi
  401a90:	e8 eb f3 ff ff       	callq  400e80 <read@plt>
  401a95:	89 45 e4             	mov    %eax,-0x1c(%rbp)
      if (nr == 1) 
  401a98:	83 7d e4 01          	cmpl   $0x1,-0x1c(%rbp)
  401a9c:	0f 85 8e 00 00 00    	jne    401b30 <C_ACCEPT+0x19c>
	{
	  if (*cp == 10) 
  401aa2:	48 8b 85 58 ff ff ff 	mov    -0xa8(%rbp),%rax
  401aa9:	0f b6 00             	movzbl (%rax),%eax
  401aac:	3c 0a                	cmp    $0xa,%al
  401aae:	0f 84 8d 00 00 00    	je     401b41 <C_ACCEPT+0x1ad>
	    break;
	  else if (*cp == 127)
  401ab4:	48 8b 85 58 ff ff ff 	mov    -0xa8(%rbp),%rax
  401abb:	0f b6 00             	movzbl (%rax),%eax
  401abe:	3c 7f                	cmp    $0x7f,%al
  401ac0:	75 49                	jne    401b0b <C_ACCEPT+0x177>
	  {
	    write (0, bksp, 3);
  401ac2:	48 8b 45 f0          	mov    -0x10(%rbp),%rax
  401ac6:	ba 03 00 00 00       	mov    $0x3,%edx
  401acb:	48 89 c6             	mov    %rax,%rsi
  401ace:	bf 00 00 00 00       	mov    $0x0,%edi
  401ad3:	e8 e8 f2 ff ff       	callq  400dc0 <write@plt>
	    --cp; --n2;
  401ad8:	48 83 ad 58 ff ff ff 	subq   $0x1,-0xa8(%rbp)
  401adf:	01 
  401ae0:	83 6d fc 01          	subl   $0x1,-0x4(%rbp)
	    if (cp < cpstart) cp = cpstart;
  401ae4:	48 8b 85 58 ff ff ff 	mov    -0xa8(%rbp),%rax
  401aeb:	48 3b 45 e8          	cmp    -0x18(%rbp),%rax
  401aef:	73 0b                	jae    401afc <C_ACCEPT+0x168>
  401af1:	48 8b 45 e8          	mov    -0x18(%rbp),%rax
  401af5:	48 89 85 58 ff ff ff 	mov    %rax,-0xa8(%rbp)
	    if (n2 < 0) n2 = 0;
  401afc:	83 7d fc 00          	cmpl   $0x0,-0x4(%rbp)
  401b00:	79 2e                	jns    401b30 <C_ACCEPT+0x19c>
  401b02:	c7 45 fc 00 00 00 00 	movl   $0x0,-0x4(%rbp)
  401b09:	eb 25                	jmp    401b30 <C_ACCEPT+0x19c>
	  }
	  else
	  {
	    write (0, cp, 1);
  401b0b:	48 8b 85 58 ff ff ff 	mov    -0xa8(%rbp),%rax
  401b12:	ba 01 00 00 00       	mov    $0x1,%edx
  401b17:	48 89 c6             	mov    %rax,%rsi
  401b1a:	bf 00 00 00 00       	mov    $0x0,%edi
  401b1f:	e8 9c f2 ff ff       	callq  400dc0 <write@plt>
	    ++n2; ++cp;
  401b24:	83 45 fc 01          	addl   $0x1,-0x4(%rbp)
  401b28:	48 83 85 58 ff ff ff 	addq   $0x1,-0xa8(%rbp)
  401b2f:	01 
  t2.c_cc[VTIME] = 0;
  tcsetattr(0, TCSANOW, &t2);


  n2 = 0;
  while (n2 < n1)
  401b30:	8b 45 fc             	mov    -0x4(%rbp),%eax
  401b33:	3b 85 54 ff ff ff    	cmp    -0xac(%rbp),%eax
  401b39:	0f 8c 3d ff ff ff    	jl     401a7c <C_ACCEPT+0xe8>
  401b3f:	eb 01                	jmp    401b42 <C_ACCEPT+0x1ae>
    {
      nr = read (0, cp, 1);
      if (nr == 1) 
	{
	  if (*cp == 10) 
	    break;
  401b41:	90                   	nop
	    ++n2; ++cp;
	  }
	}
    }

  tcsetattr(0, TCSANOW, &t1);
  401b42:	48 8d 45 a0          	lea    -0x60(%rbp),%rax
  401b46:	48 89 c2             	mov    %rax,%rdx
  401b49:	be 00 00 00 00       	mov    $0x0,%esi
  401b4e:	bf 00 00 00 00       	mov    $0x0,%edi
  401b53:	e8 c8 f3 ff ff       	callq  400f20 <tcsetattr@plt>
  return n2;
  401b58:	8b 45 fc             	mov    -0x4(%rbp),%eax
}
  401b5b:	c9                   	leaveq 
  401b5c:	c3                   	retq   

0000000000401b5d <L_ACCEPT>:

int L_ACCEPT (char *cp, int n1 )
{  struct termios t1, t2;
  401b5d:	55                   	push   %rbp
  401b5e:	48 89 e5             	mov    %rsp,%rbp
  401b61:	48 81 ec 90 00 00 00 	sub    $0x90,%rsp
  401b68:	48 89 bd 78 ff ff ff 	mov    %rdi,-0x88(%rbp)
  401b6f:	89 b5 74 ff ff ff    	mov    %esi,-0x8c(%rbp)
  int n2;
  tcgetattr(0, &t1);
  401b75:	48 8d 45 c0          	lea    -0x40(%rbp),%rax
  401b79:	48 89 c6             	mov    %rax,%rsi
  401b7c:	bf 00 00 00 00       	mov    $0x0,%edi
  401b81:	e8 8a f3 ff ff       	callq  400f10 <tcgetattr@plt>
  t2 = t1;
  401b86:	48 8b 45 c0          	mov    -0x40(%rbp),%rax
  401b8a:	48 89 45 80          	mov    %rax,-0x80(%rbp)
  401b8e:	48 8b 45 c8          	mov    -0x38(%rbp),%rax
  401b92:	48 89 45 88          	mov    %rax,-0x78(%rbp)
  401b96:	48 8b 45 d0          	mov    -0x30(%rbp),%rax
  401b9a:	48 89 45 90          	mov    %rax,-0x70(%rbp)
  401b9e:	48 8b 45 d8          	mov    -0x28(%rbp),%rax
  401ba2:	48 89 45 98          	mov    %rax,-0x68(%rbp)
  401ba6:	48 8b 45 e0          	mov    -0x20(%rbp),%rax
  401baa:	48 89 45 a0          	mov    %rax,-0x60(%rbp)
  401bae:	48 8b 45 e8          	mov    -0x18(%rbp),%rax
  401bb2:	48 89 45 a8          	mov    %rax,-0x58(%rbp)
  401bb6:	48 8b 45 f0          	mov    -0x10(%rbp),%rax
  401bba:	48 89 45 b0          	mov    %rax,-0x50(%rbp)
  401bbe:	8b 45 f8             	mov    -0x8(%rbp),%eax
  401bc1:	89 45 b8             	mov    %eax,-0x48(%rbp)
  t2.c_lflag |= ICANON;
  401bc4:	8b 45 8c             	mov    -0x74(%rbp),%eax
  401bc7:	83 c8 02             	or     $0x2,%eax
  401bca:	89 45 8c             	mov    %eax,-0x74(%rbp)
  t2.c_lflag |= ECHO;
  401bcd:	8b 45 8c             	mov    -0x74(%rbp),%eax
  401bd0:	83 c8 08             	or     $0x8,%eax
  401bd3:	89 45 8c             	mov    %eax,-0x74(%rbp)
  t2.c_lflag |= PENDIN;
  401bd6:	8b 45 8c             	mov    -0x74(%rbp),%eax
  401bd9:	80 cc 40             	or     $0x40,%ah
  401bdc:	89 45 8c             	mov    %eax,-0x74(%rbp)

  t2.c_cc[VMIN] = 1;
  401bdf:	c6 45 97 01          	movb   $0x1,-0x69(%rbp)
  t2.c_cc[VTIME] = 0;
  401be3:	c6 45 96 00          	movb   $0x0,-0x6a(%rbp)
  tcsetattr(0, TCSANOW, &t2);
  401be7:	48 8d 45 80          	lea    -0x80(%rbp),%rax
  401beb:	48 89 c2             	mov    %rax,%rdx
  401bee:	be 00 00 00 00       	mov    $0x0,%esi
  401bf3:	bf 00 00 00 00       	mov    $0x0,%edi
  401bf8:	e8 23 f3 ff ff       	callq  400f20 <tcsetattr@plt>
   n2 = read (0, cp, n1);
  401bfd:	8b 85 74 ff ff ff    	mov    -0x8c(%rbp),%eax
  401c03:	48 63 d0             	movslq %eax,%rdx
  401c06:	48 8b 85 78 ff ff ff 	mov    -0x88(%rbp),%rax
  401c0d:	48 89 c6             	mov    %rax,%rsi
  401c10:	bf 00 00 00 00       	mov    $0x0,%edi
  401c15:	e8 66 f2 ff ff       	callq  400e80 <read@plt>
  401c1a:	89 45 fc             	mov    %eax,-0x4(%rbp)
  tcsetattr(0, TCSANOW, &t1);
  401c1d:	48 8d 45 c0          	lea    -0x40(%rbp),%rax
  401c21:	48 89 c2             	mov    %rax,%rdx
  401c24:	be 00 00 00 00       	mov    $0x0,%esi
  401c29:	bf 00 00 00 00       	mov    $0x0,%edi
  401c2e:	e8 ed f2 ff ff       	callq  400f20 <tcsetattr@plt>
  return n2;
  401c33:	8b 45 fc             	mov    -0x4(%rbp),%eax
}
  401c36:	c9                   	leaveq 
  401c37:	c3                   	retq   

0000000000401c38 <wherexy>:


static int ASCREEN;
static struct {char lines, cols, x, y;} scrn;

int wherexy(void) {								/* 19 */
  401c38:	55                   	push   %rbp
  401c39:	48 89 e5             	mov    %rsp,%rbp
    lseek(ASCREEN, 0, SEEK_SET); read(ASCREEN, &scrn, 4);
  401c3c:	8b 05 8e b8 20 00    	mov    0x20b88e(%rip),%eax        # 60d4d0 <ASCREEN>
  401c42:	ba 00 00 00 00       	mov    $0x0,%edx
  401c47:	be 00 00 00 00       	mov    $0x0,%esi
  401c4c:	89 c7                	mov    %eax,%edi
  401c4e:	e8 dd f1 ff ff       	callq  400e30 <lseek@plt>
  401c53:	8b 05 77 b8 20 00    	mov    0x20b877(%rip),%eax        # 60d4d0 <ASCREEN>
  401c59:	ba 04 00 00 00       	mov    $0x4,%edx
  401c5e:	be d4 d4 60 00       	mov    $0x60d4d4,%esi
  401c63:	89 c7                	mov    %eax,%edi
  401c65:	e8 16 f2 ff ff       	callq  400e80 <read@plt>
    return ((scrn.x << 16) | (scrn.y & 0xFFFF)); }
  401c6a:	0f b6 05 65 b8 20 00 	movzbl 0x20b865(%rip),%eax        # 60d4d6 <scrn+0x2>
  401c71:	0f be c0             	movsbl %al,%eax
  401c74:	89 c2                	mov    %eax,%edx
  401c76:	c1 e2 10             	shl    $0x10,%edx
  401c79:	0f b6 05 57 b8 20 00 	movzbl 0x20b857(%rip),%eax        # 60d4d7 <scrn+0x3>
  401c80:	0f be c0             	movsbl %al,%eax
  401c83:	25 ff ff 00 00       	and    $0xffff,%eax
  401c88:	09 d0                	or     %edx,%eax
  401c8a:	5d                   	pop    %rbp
  401c8b:	c3                   	retq   

0000000000401c8c <zzzz>:

long long zzzz()
{ return 0x5555777733331111l;
  401c8c:	55                   	push   %rbp
  401c8d:	48 89 e5             	mov    %rsp,%rbp
  401c90:	48 b8 11 11 33 33 77 	movabs $0x5555777733331111,%rax
  401c97:	77 55 55 
}
  401c9a:	5d                   	pop    %rbp
  401c9b:	c3                   	retq   

0000000000401c9c <main>:
main(int argc,char **argv)
{  char kk;
  401c9c:	55                   	push   %rbp
  401c9d:	48 89 e5             	mov    %rsp,%rbp
  401ca0:	48 83 ec 10          	sub    $0x10,%rsp
  401ca4:	89 7d fc             	mov    %edi,-0x4(%rbp)
  401ca7:	48 89 75 f0          	mov    %rsi,-0x10(%rbp)
   ARGV1=argv[1];
  401cab:	48 8b 45 f0          	mov    -0x10(%rbp),%rax
  401caf:	48 8b 40 08          	mov    0x8(%rax),%rax
  401cb3:	48 89 05 b6 a7 bd 00 	mov    %rax,0xbda7b6(%rip)        # fdc470 <ARGV1>
   FP=&FPBuf[FPBufSize-2];
  401cba:	48 c7 05 3b 88 bd 00 	movq   $0xfdc460,0xbd883b(%rip)        # fda500 <FP>
  401cc1:	60 c4 fd 00 
  amain();
  401cc5:	b8 00 00 00 00       	mov    $0x0,%eax
  401cca:	e8 19 f4 ff ff       	callq  4010e8 <amain>
  
  return 0;
  401ccf:	b8 00 00 00 00       	mov    $0x0,%eax
}
  401cd4:	c9                   	leaveq 
  401cd5:	c3                   	retq   
  401cd6:	90                   	nop
  401cd7:	90                   	nop

0000000000401cd8 <c_sock_open>:
char inet_addr_buff[256]="localhost";
char * inet_addr_buf=&inet_addr_buff;
unsigned CIPAddr;

int c_sock_open(int port,char * iaddr)
{
  401cd8:	55                   	push   %rbp
  401cd9:	48 89 e5             	mov    %rsp,%rbp
  401cdc:	48 83 ec 30          	sub    $0x30,%rsp
  401ce0:	89 7d dc             	mov    %edi,-0x24(%rbp)
  401ce3:	48 89 75 d0          	mov    %rsi,-0x30(%rbp)
	struct sockaddr_in serveraddr;
	struct hostent *he;
	int sock;

  if((sock = socket(AF_INET, SOCK_STREAM, 0)) == -1)
  401ce7:	ba 00 00 00 00       	mov    $0x0,%edx
  401cec:	be 01 00 00 00       	mov    $0x1,%esi
  401cf1:	bf 02 00 00 00       	mov    $0x2,%edi
  401cf6:	e8 c5 f2 ff ff       	callq  400fc0 <socket@plt>
  401cfb:	89 45 fc             	mov    %eax,-0x4(%rbp)
  401cfe:	83 7d fc ff          	cmpl   $0xffffffff,-0x4(%rbp)
  401d02:	75 14                	jne    401d18 <c_sock_open+0x40>
    {
      printf("connect socket err\n");
  401d04:	bf c8 21 40 00       	mov    $0x4021c8,%edi
  401d09:	e8 72 f0 ff ff       	callq  400d80 <puts@plt>
      return -1;
  401d0e:	b8 ff ff ff ff       	mov    $0xffffffff,%eax
  401d13:	e9 a7 00 00 00       	jmpq   401dbf <c_sock_open+0xe7>
    }

  if ((he = gethostbyname(iaddr)) == 0)
  401d18:	48 8b 45 d0          	mov    -0x30(%rbp),%rax
  401d1c:	48 89 c7             	mov    %rax,%rdi
  401d1f:	e8 8c f1 ff ff       	callq  400eb0 <gethostbyname@plt>
  401d24:	48 89 45 f0          	mov    %rax,-0x10(%rbp)
  401d28:	48 83 7d f0 00       	cmpq   $0x0,-0x10(%rbp)
  401d2d:	75 11                	jne    401d40 <c_sock_open+0x68>
    {
      printf("Client-gethostbyname() error lol!\n");
  401d2f:	bf e0 21 40 00       	mov    $0x4021e0,%edi
  401d34:	e8 47 f0 ff ff       	callq  400d80 <puts@plt>
      return -1;
  401d39:	b8 ff ff ff ff       	mov    $0xffffffff,%eax
  401d3e:	eb 7f                	jmp    401dbf <c_sock_open+0xe7>
    }

	serveraddr.sin_family = AF_INET;
  401d40:	66 c7 45 e0 02 00    	movw   $0x2,-0x20(%rbp)
	serveraddr.sin_port =  htons(port);
  401d46:	8b 45 dc             	mov    -0x24(%rbp),%eax
  401d49:	0f b7 c0             	movzwl %ax,%eax
  401d4c:	89 c7                	mov    %eax,%edi
  401d4e:	e8 ad f0 ff ff       	callq  400e00 <htons@plt>
  401d53:	66 89 45 e2          	mov    %ax,-0x1e(%rbp)
//  serveraddr.sin_addr.s_addr = inet_addr(inet_ntoa(*(struct in_addr *)he->h_addr_list[0]));
	serveraddr.sin_addr =  *((struct in_addr *)he->h_addr);
  401d57:	48 8b 45 f0          	mov    -0x10(%rbp),%rax
  401d5b:	48 8b 40 18          	mov    0x18(%rax),%rax
  401d5f:	48 8b 00             	mov    (%rax),%rax
  401d62:	8b 00                	mov    (%rax),%eax
  401d64:	89 45 e4             	mov    %eax,-0x1c(%rbp)
	memset(&(serveraddr.sin_zero), '\0', 8);
  401d67:	48 8d 45 e0          	lea    -0x20(%rbp),%rax
  401d6b:	48 83 c0 08          	add    $0x8,%rax
  401d6f:	ba 08 00 00 00       	mov    $0x8,%edx
  401d74:	be 00 00 00 00       	mov    $0x0,%esi
  401d79:	48 89 c7             	mov    %rax,%rdi
  401d7c:	e8 bf f0 ff ff       	callq  400e40 <memset@plt>

  if(connect(sock, (struct sockaddr *)&serveraddr, sizeof(struct sockaddr)) == -1)
  401d81:	48 8d 4d e0          	lea    -0x20(%rbp),%rcx
  401d85:	8b 45 fc             	mov    -0x4(%rbp),%eax
  401d88:	ba 10 00 00 00       	mov    $0x10,%edx
  401d8d:	48 89 ce             	mov    %rcx,%rsi
  401d90:	89 c7                	mov    %eax,%edi
  401d92:	e8 09 f2 ff ff       	callq  400fa0 <connect@plt>
  401d97:	83 f8 ff             	cmp    $0xffffffff,%eax
  401d9a:	75 16                	jne    401db2 <c_sock_open+0xda>
    {
      printf("connect err");
  401d9c:	bf 02 22 40 00       	mov    $0x402202,%edi
  401da1:	b8 00 00 00 00       	mov    $0x0,%eax
  401da6:	e8 65 f0 ff ff       	callq  400e10 <printf@plt>
      return -1;
  401dab:	b8 ff ff ff ff       	mov    $0xffffffff,%eax
  401db0:	eb 0d                	jmp    401dbf <c_sock_open+0xe7>
    }
    else
      printf("Client-The connect() is OK...\n");
  401db2:	bf 0e 22 40 00       	mov    $0x40220e,%edi
  401db7:	e8 c4 ef ff ff       	callq  400d80 <puts@plt>
      return sock;
  401dbc:	8b 45 fc             	mov    -0x4(%rbp),%eax
}
  401dbf:	c9                   	leaveq 
  401dc0:	c3                   	retq   

0000000000401dc1 <c_sock_lconnect>:

int c_sock_lconnect(int port)
{
  401dc1:	55                   	push   %rbp
  401dc2:	48 89 e5             	mov    %rsp,%rbp
  401dc5:	48 83 ec 10          	sub    $0x10,%rsp
  401dc9:	89 7d fc             	mov    %edi,-0x4(%rbp)
	return c_sock_open( port, inet_addr_buf );
  401dcc:	48 8b 15 cd b6 20 00 	mov    0x20b6cd(%rip),%rdx        # 60d4a0 <inet_addr_buf>
  401dd3:	8b 45 fc             	mov    -0x4(%rbp),%eax
  401dd6:	48 89 d6             	mov    %rdx,%rsi
  401dd9:	89 c7                	mov    %eax,%edi
  401ddb:	e8 f8 fe ff ff       	callq  401cd8 <c_sock_open>
}
  401de0:	c9                   	leaveq 
  401de1:	c3                   	retq   

0000000000401de2 <hostname2ip>:

unsigned hostname2ip(char * hostname)
{
  401de2:	55                   	push   %rbp
  401de3:	48 89 e5             	mov    %rsp,%rbp
  401de6:	48 83 ec 20          	sub    $0x20,%rsp
  401dea:	48 89 7d e8          	mov    %rdi,-0x18(%rbp)
   struct hostent *he;

   if ( (he = gethostbyname( hostname ) ) == NULL) 
  401dee:	48 8b 45 e8          	mov    -0x18(%rbp),%rax
  401df2:	48 89 c7             	mov    %rax,%rdi
  401df5:	e8 b6 f0 ff ff       	callq  400eb0 <gethostbyname@plt>
  401dfa:	48 89 45 f8          	mov    %rax,-0x8(%rbp)
  401dfe:	48 83 7d f8 00       	cmpq   $0x0,-0x8(%rbp)
  401e03:	75 16                	jne    401e1b <hostname2ip+0x39>
   {
	// get the host info
	printf("gethostbyname");
  401e05:	bf 2c 22 40 00       	mov    $0x40222c,%edi
  401e0a:	b8 00 00 00 00       	mov    $0x0,%eax
  401e0f:	e8 fc ef ff ff       	callq  400e10 <printf@plt>
	return -1;
  401e14:	b8 ff ff ff ff       	mov    $0xffffffff,%eax
  401e19:	eb 0d                	jmp    401e28 <hostname2ip+0x46>
   }
     
   return *((unsigned *)he->h_addr);
  401e1b:	48 8b 45 f8          	mov    -0x8(%rbp),%rax
  401e1f:	48 8b 40 18          	mov    0x18(%rax),%rax
  401e23:	48 8b 00             	mov    (%rax),%rax
  401e26:	8b 00                	mov    (%rax),%eax
}
  401e28:	c9                   	leaveq 
  401e29:	c3                   	retq   

0000000000401e2a <c_getmyip>:
/*
 *  IP   
 */

unsigned c_getmyip()
{
  401e2a:	55                   	push   %rbp
  401e2b:	48 89 e5             	mov    %rsp,%rbp
  401e2e:	48 83 ec 40          	sub    $0x40,%rsp
  int fd;
  struct sockaddr_in * ps;
  struct ifreq ifr;
  int ipaddr;

  memset((void *)&ifr, 0, sizeof(struct ifreq));
  401e32:	48 8d 45 c0          	lea    -0x40(%rbp),%rax
  401e36:	ba 28 00 00 00       	mov    $0x28,%edx
  401e3b:	be 00 00 00 00       	mov    $0x0,%esi
  401e40:	48 89 c7             	mov    %rax,%rdi
  401e43:	e8 f8 ef ff ff       	callq  400e40 <memset@plt>
  if((fd = socket(AF_INET,SOCK_DGRAM,0)) < 0)	return (-1);
  401e48:	ba 00 00 00 00       	mov    $0x0,%edx
  401e4d:	be 02 00 00 00       	mov    $0x2,%esi
  401e52:	bf 02 00 00 00       	mov    $0x2,%edi
  401e57:	e8 64 f1 ff ff       	callq  400fc0 <socket@plt>
  401e5c:	89 45 fc             	mov    %eax,-0x4(%rbp)
  401e5f:	83 7d fc 00          	cmpl   $0x0,-0x4(%rbp)
  401e63:	79 0a                	jns    401e6f <c_getmyip+0x45>
  401e65:	b8 ff ff ff ff       	mov    $0xffffffff,%eax
  401e6a:	e9 ae 00 00 00       	jmpq   401f1d <c_getmyip+0xf3>

  sprintf(ifr.ifr_name,"%s","eth0");
  401e6f:	48 8d 45 c0          	lea    -0x40(%rbp),%rax
  401e73:	c7 00 65 74 68 30    	movl   $0x30687465,(%rax)
  401e79:	c6 40 04 00          	movb   $0x0,0x4(%rax)

  if(ioctl(fd, SIOCGIFADDR, &ifr) < 0) {
  401e7d:	48 8d 55 c0          	lea    -0x40(%rbp),%rdx
  401e81:	8b 45 fc             	mov    -0x4(%rbp),%eax
  401e84:	be 15 89 00 00       	mov    $0x8915,%esi
  401e89:	89 c7                	mov    %eax,%edi
  401e8b:	b8 00 00 00 00       	mov    $0x0,%eax
  401e90:	e8 bb ef ff ff       	callq  400e50 <ioctl@plt>
  401e95:	85 c0                	test   %eax,%eax
  401e97:	79 61                	jns    401efa <c_getmyip+0xd0>
    sprintf(ifr.ifr_name,"%s","eth1");
  401e99:	48 8d 45 c0          	lea    -0x40(%rbp),%rax
  401e9d:	c7 00 65 74 68 31    	movl   $0x31687465,(%rax)
  401ea3:	c6 40 04 00          	movb   $0x0,0x4(%rax)
    if(ioctl(fd, SIOCGIFADDR, &ifr) < 0)
  401ea7:	48 8d 55 c0          	lea    -0x40(%rbp),%rdx
  401eab:	8b 45 fc             	mov    -0x4(%rbp),%eax
  401eae:	be 15 89 00 00       	mov    $0x8915,%esi
  401eb3:	89 c7                	mov    %eax,%edi
  401eb5:	b8 00 00 00 00       	mov    $0x0,%eax
  401eba:	e8 91 ef ff ff       	callq  400e50 <ioctl@plt>
  401ebf:	85 c0                	test   %eax,%eax
  401ec1:	79 37                	jns    401efa <c_getmyip+0xd0>
      {
        sprintf(ifr.ifr_name,"%s","eth0.2");
  401ec3:	48 8d 45 c0          	lea    -0x40(%rbp),%rax
  401ec7:	c7 00 65 74 68 30    	movl   $0x30687465,(%rax)
  401ecd:	66 c7 40 04 2e 32    	movw   $0x322e,0x4(%rax)
  401ed3:	c6 40 06 00          	movb   $0x0,0x6(%rax)
        if(ioctl(fd, SIOCGIFADDR, &ifr) < 0)
  401ed7:	48 8d 55 c0          	lea    -0x40(%rbp),%rdx
  401edb:	8b 45 fc             	mov    -0x4(%rbp),%eax
  401ede:	be 15 89 00 00       	mov    $0x8915,%esi
  401ee3:	89 c7                	mov    %eax,%edi
  401ee5:	b8 00 00 00 00       	mov    $0x0,%eax
  401eea:	e8 61 ef ff ff       	callq  400e50 <ioctl@plt>
  401eef:	85 c0                	test   %eax,%eax
  401ef1:	79 07                	jns    401efa <c_getmyip+0xd0>
        return -1;
  401ef3:	b8 ff ff ff ff       	mov    $0xffffffff,%eax
  401ef8:	eb 23                	jmp    401f1d <c_getmyip+0xf3>
      }
  }

  ps= (struct sockaddr_in *) &ifr.ifr_addr;
  401efa:	48 8d 45 c0          	lea    -0x40(%rbp),%rax
  401efe:	48 83 c0 10          	add    $0x10,%rax
  401f02:	48 89 45 f0          	mov    %rax,-0x10(%rbp)
  ipaddr= ps->sin_addr.s_addr;
  401f06:	48 8b 45 f0          	mov    -0x10(%rbp),%rax
  401f0a:	8b 40 04             	mov    0x4(%rax),%eax
  401f0d:	89 45 ec             	mov    %eax,-0x14(%rbp)
  close(fd);
  401f10:	8b 45 fc             	mov    -0x4(%rbp),%eax
  401f13:	89 c7                	mov    %eax,%edi
  401f15:	e8 46 ef ff ff       	callq  400e60 <close@plt>
  return ipaddr;
  401f1a:	8b 45 ec             	mov    -0x14(%rbp),%eax
}
  401f1d:	c9                   	leaveq 
  401f1e:	c3                   	retq   

0000000000401f1f <c_create_server>:

int c_create_server(int port)
{
  401f1f:	55                   	push   %rbp
  401f20:	48 89 e5             	mov    %rsp,%rbp
  401f23:	48 83 ec 40          	sub    $0x40,%rsp
  401f27:	89 7d cc             	mov    %edi,-0x34(%rbp)
	struct sockaddr_in server;
	int sock, flag, ret;

//    if((sock = socket(AF_INET, SOCK_STREAM, 0)) == -1)
  if((sock = socket(PF_INET, SOCK_STREAM, IPPROTO_TCP)) == -1)
  401f2a:	ba 06 00 00 00       	mov    $0x6,%edx
  401f2f:	be 01 00 00 00       	mov    $0x1,%esi
  401f34:	bf 02 00 00 00       	mov    $0x2,%edi
  401f39:	e8 82 f0 ff ff       	callq  400fc0 <socket@plt>
  401f3e:	89 45 fc             	mov    %eax,-0x4(%rbp)
  401f41:	83 7d fc ff          	cmpl   $0xffffffff,-0x4(%rbp)
  401f45:	75 14                	jne    401f5b <c_create_server+0x3c>
    {
      perror("server socket err\n");
  401f47:	bf 3a 22 40 00       	mov    $0x40223a,%edi
  401f4c:	e8 ef ef ff ff       	callq  400f40 <perror@plt>
      return -1;
  401f51:	b8 ff ff ff ff       	mov    $0xffffffff,%eax
  401f56:	e9 ae 00 00 00       	jmpq   402009 <c_create_server+0xea>
    }

  /*    (TCP No Delay) -   */
  flag = 1;
  401f5b:	c7 45 dc 01 00 00 00 	movl   $0x1,-0x24(%rbp)
  ret = setsockopt( sock, IPPROTO_TCP, TCP_NODELAY, (char *)&flag, sizeof(flag) );
  401f62:	48 8d 55 dc          	lea    -0x24(%rbp),%rdx
  401f66:	8b 45 fc             	mov    -0x4(%rbp),%eax
  401f69:	41 b8 04 00 00 00    	mov    $0x4,%r8d
  401f6f:	48 89 d1             	mov    %rdx,%rcx
  401f72:	ba 01 00 00 00       	mov    $0x1,%edx
  401f77:	be 06 00 00 00       	mov    $0x6,%esi
  401f7c:	89 c7                	mov    %eax,%edi
  401f7e:	e8 2d ee ff ff       	callq  400db0 <setsockopt@plt>
  401f83:	89 45 f8             	mov    %eax,-0x8(%rbp)
  if (ret == -1) {
  401f86:	83 7d f8 ff          	cmpl   $0xffffffff,-0x8(%rbp)
  401f8a:	75 11                	jne    401f9d <c_create_server+0x7e>
    printf("Couldn't setsockopt(TCP_NODELAY)\n");
  401f8c:	bf 50 22 40 00       	mov    $0x402250,%edi
  401f91:	e8 ea ed ff ff       	callq  400d80 <puts@plt>
    return -1;
  401f96:	b8 ff ff ff ff       	mov    $0xffffffff,%eax
  401f9b:	eb 6c                	jmp    402009 <c_create_server+0xea>
  }

  server.sin_family = AF_INET;
  401f9d:	66 c7 45 e0 02 00    	movw   $0x2,-0x20(%rbp)
  server.sin_port = htons(port);
  401fa3:	8b 45 cc             	mov    -0x34(%rbp),%eax
  401fa6:	0f b7 c0             	movzwl %ax,%eax
  401fa9:	89 c7                	mov    %eax,%edi
  401fab:	e8 50 ee ff ff       	callq  400e00 <htons@plt>
  401fb0:	66 89 45 e2          	mov    %ax,-0x1e(%rbp)
  server.sin_addr.s_addr = INADDR_ANY;
  401fb4:	c7 45 e4 00 00 00 00 	movl   $0x0,-0x1c(%rbp)
  bzero(&server.sin_zero, 8);
  401fbb:	48 8d 45 e0          	lea    -0x20(%rbp),%rax
  401fbf:	48 83 c0 08          	add    $0x8,%rax
  401fc3:	be 08 00 00 00       	mov    $0x8,%esi
  401fc8:	48 89 c7             	mov    %rax,%rdi
  401fcb:	e8 80 ef ff ff       	callq  400f50 <bzero@plt>
//    printf ("Source IP:   %d.%d.%d.%d\n", NIPQUAD(server.sin_addr.s_addr));

  if((bind(sock, (struct sockaddr *)&server, sizeof(struct sockaddr_in))) == -1)
  401fd0:	48 8d 4d e0          	lea    -0x20(%rbp),%rcx
  401fd4:	8b 45 fc             	mov    -0x4(%rbp),%eax
  401fd7:	ba 10 00 00 00       	mov    $0x10,%edx
  401fdc:	48 89 ce             	mov    %rcx,%rsi
  401fdf:	89 c7                	mov    %eax,%edi
  401fe1:	e8 1a ef ff ff       	callq  400f00 <bind@plt>
  401fe6:	83 f8 ff             	cmp    $0xffffffff,%eax
  401fe9:	75 11                	jne    401ffc <c_create_server+0xdd>
    {
      perror("bind err\n");
  401feb:	bf 71 22 40 00       	mov    $0x402271,%edi
  401ff0:	e8 4b ef ff ff       	callq  400f40 <perror@plt>
      return -1;
  401ff5:	b8 ff ff ff ff       	mov    $0xffffffff,%eax
  401ffa:	eb 0d                	jmp    402009 <c_create_server+0xea>
	// exit(-1);
   // }


   // printf("\nThe TCPServer Waiting for client on port %d\n",ntohs(server.sin_port));
  printf("TCP Server created\n");
  401ffc:	bf 7b 22 40 00       	mov    $0x40227b,%edi
  402001:	e8 7a ed ff ff       	callq  400d80 <puts@plt>

  return sock;
  402006:	8b 45 fc             	mov    -0x4(%rbp),%eax
}
  402009:	c9                   	leaveq 
  40200a:	c3                   	retq   

000000000040200b <c_sock_accept>:


int c_sock_accept (int sock)
{ int new;
  40200b:	55                   	push   %rbp
  40200c:	48 89 e5             	mov    %rsp,%rbp
  40200f:	48 83 ec 40          	sub    $0x40,%rsp
  402013:	89 7d cc             	mov    %edi,-0x34(%rbp)
  struct sockaddr_in client;
  int sockaddr_len = sizeof(struct sockaddr_in);
  402016:	c7 45 dc 10 00 00 00 	movl   $0x10,-0x24(%rbp)

	if((new = accept(sock, (struct sockaddr *)&client, &sockaddr_len)) == -1)
  40201d:	48 8d 55 dc          	lea    -0x24(%rbp),%rdx
  402021:	48 8d 4d e0          	lea    -0x20(%rbp),%rcx
  402025:	8b 45 cc             	mov    -0x34(%rbp),%eax
  402028:	48 89 ce             	mov    %rcx,%rsi
  40202b:	89 c7                	mov    %eax,%edi
  40202d:	e8 2e ef ff ff       	callq  400f60 <accept@plt>
  402032:	89 45 fc             	mov    %eax,-0x4(%rbp)
  402035:	83 7d fc ff          	cmpl   $0xffffffff,-0x4(%rbp)
  402039:	75 11                	jne    40204c <c_sock_accept+0x41>
    {
      perror("accept err");
  40203b:	bf 8e 22 40 00       	mov    $0x40228e,%edi
  402040:	e8 fb ee ff ff       	callq  400f40 <perror@plt>
      return -1;
  402045:	b8 ff ff ff ff       	mov    $0xffffffff,%eax
  40204a:	eb 34                	jmp    402080 <c_sock_accept+0x75>
    }
	CIPAddr=client.sin_addr.s_addr;
  40204c:	8b 45 e4             	mov    -0x1c(%rbp),%eax
  40204f:	89 05 a7 a4 bd 00    	mov    %eax,0xbda4a7(%rip)        # fdc4fc <CIPAddr>
//	printf("From %x %s:%d\n", CIPAddr,inet_ntoa(client.sin_addr), ntohs(client.sin_port));
	printf("From %x :%d\n", CIPAddr, ntohs(client.sin_port));
  402055:	0f b7 45 e2          	movzwl -0x1e(%rbp),%eax
  402059:	0f b7 c0             	movzwl %ax,%eax
  40205c:	89 c7                	mov    %eax,%edi
  40205e:	e8 8d ee ff ff       	callq  400ef0 <ntohs@plt>
  402063:	0f b7 d0             	movzwl %ax,%edx
  402066:	8b 05 90 a4 bd 00    	mov    0xbda490(%rip),%eax        # fdc4fc <CIPAddr>
  40206c:	89 c6                	mov    %eax,%esi
  40206e:	bf 99 22 40 00       	mov    $0x402299,%edi
  402073:	b8 00 00 00 00       	mov    $0x0,%eax
  402078:	e8 93 ed ff ff       	callq  400e10 <printf@plt>

	return new;
  40207d:	8b 45 fc             	mov    -0x4(%rbp),%eax
}
  402080:	c9                   	leaveq 
  402081:	c3                   	retq   

0000000000402082 <c_sock_listen>:


int c_sock_listen(int sock)
{
  402082:	55                   	push   %rbp
  402083:	48 89 e5             	mov    %rsp,%rbp
  402086:	48 83 ec 10          	sub    $0x10,%rsp
  40208a:	89 7d fc             	mov    %edi,-0x4(%rbp)
	return listen(sock, 100);
  40208d:	8b 45 fc             	mov    -0x4(%rbp),%eax
  402090:	be 64 00 00 00       	mov    $0x64,%esi
  402095:	89 c7                	mov    %eax,%edi
  402097:	e8 44 ee ff ff       	callq  400ee0 <listen@plt>
}
  40209c:	c9                   	leaveq 
  40209d:	c3                   	retq   

000000000040209e <c_getpid>:
//  task id
// pid_t pid, ppid;
// pid = getpid ();
// ppid = getppid ();

int c_getpid() {
  40209e:	55                   	push   %rbp
  40209f:	48 89 e5             	mov    %rsp,%rbp
  // pid_t getpid(void);
  return getpid();
  4020a2:	e8 29 ed ff ff       	callq  400dd0 <getpid@plt>
}
  4020a7:	5d                   	pop    %rbp
  4020a8:	c3                   	retq   

00000000004020a9 <c_getppid>:

int c_getppid() { 
  4020a9:	55                   	push   %rbp
  4020aa:	48 89 e5             	mov    %rsp,%rbp
  // pid_t getppid(void);
  return getppid();
  4020ad:	e8 ce ee ff ff       	callq  400f80 <getppid@plt>
}
  4020b2:	5d                   	pop    %rbp
  4020b3:	c3                   	retq   

00000000004020b4 <c_clone>:
           // return 55;
   // }
   // .....
// }

int c_clone(int xt) {
  4020b4:	55                   	push   %rbp
  4020b5:	48 89 e5             	mov    %rsp,%rbp
  4020b8:	48 83 ec 20          	sub    $0x20,%rsp
  4020bc:	89 7d ec             	mov    %edi,-0x14(%rbp)
  // int clone(int (*fn)(void *), void *child_stack,
          // int flags, void *arg, ...
          // /* pid_t *ptid, struct user_desc *tls, pid_t *ctid */ );
  void **child_stack;
  child_stack = (void **) malloc(8192);
  4020bf:	bf 00 20 00 00       	mov    $0x2000,%edi
  4020c4:	e8 07 ee ff ff       	callq  400ed0 <malloc@plt>
  4020c9:	48 89 45 f8          	mov    %rax,-0x8(%rbp)
  return clone(xt, child_stack, SIGCHLD|CLONE_VM, NULL);
  4020cd:	48 8b 75 f8          	mov    -0x8(%rbp),%rsi
  4020d1:	8b 45 ec             	mov    -0x14(%rbp),%eax
  4020d4:	b9 00 00 00 00       	mov    $0x0,%ecx
  4020d9:	ba 11 01 00 00       	mov    $0x111,%edx
  4020de:	89 c7                	mov    %eax,%edi
  4020e0:	b8 00 00 00 00       	mov    $0x0,%eax
  4020e5:	e8 a6 ec ff ff       	callq  400d90 <clone@plt>
}
  4020ea:	c9                   	leaveq 
  4020eb:	c3                   	retq   

00000000004020ec <c_exit>:

// ---  
int c_exit() { 
  4020ec:	55                   	push   %rbp
  4020ed:	48 89 e5             	mov    %rsp,%rbp
  // pid_t getppid(void);
  // exit(-1);
  // getpid()
  // int sig;
  // sig = SIGCHLD;
  kill(getpid(), SIGTERM);
  4020f0:	e8 db ec ff ff       	callq  400dd0 <getpid@plt>
  4020f5:	be 0f 00 00 00       	mov    $0xf,%esi
  4020fa:	89 c7                	mov    %eax,%edi
  4020fc:	e8 bf ed ff ff       	callq  400ec0 <kill@plt>
}
  402101:	5d                   	pop    %rbp
  402102:	c3                   	retq   
  402103:	90                   	nop
  402104:	90                   	nop
  402105:	90                   	nop
  402106:	90                   	nop
  402107:	90                   	nop
  402108:	90                   	nop
  402109:	90                   	nop
  40210a:	90                   	nop
  40210b:	90                   	nop
  40210c:	90                   	nop
  40210d:	90                   	nop
  40210e:	90                   	nop
  40210f:	90                   	nop

0000000000402110 <__libc_csu_fini>:
  402110:	f3 c3                	repz retq 
  402112:	66 66 66 66 66 2e 0f 	data32 data32 data32 data32 nopw %cs:0x0(%rax,%rax,1)
  402119:	1f 84 00 00 00 00 00 

0000000000402120 <__libc_csu_init>:
  402120:	48 89 6c 24 d8       	mov    %rbp,-0x28(%rsp)
  402125:	4c 89 64 24 e0       	mov    %r12,-0x20(%rsp)
  40212a:	48 8d 2d d7 0e 20 00 	lea    0x200ed7(%rip),%rbp        # 603008 <__init_array_end>
  402131:	4c 8d 25 c8 0e 20 00 	lea    0x200ec8(%rip),%r12        # 603000 <__frame_dummy_init_array_entry>
  402138:	4c 89 6c 24 e8       	mov    %r13,-0x18(%rsp)
  40213d:	4c 89 74 24 f0       	mov    %r14,-0x10(%rsp)
  402142:	4c 89 7c 24 f8       	mov    %r15,-0x8(%rsp)
  402147:	48 89 5c 24 d0       	mov    %rbx,-0x30(%rsp)
  40214c:	48 83 ec 38          	sub    $0x38,%rsp
  402150:	4c 29 e5             	sub    %r12,%rbp
  402153:	41 89 fd             	mov    %edi,%r13d
  402156:	49 89 f6             	mov    %rsi,%r14
  402159:	48 c1 fd 03          	sar    $0x3,%rbp
  40215d:	49 89 d7             	mov    %rdx,%r15
  402160:	e8 eb eb ff ff       	callq  400d50 <_init>
  402165:	48 85 ed             	test   %rbp,%rbp
  402168:	74 1c                	je     402186 <__libc_csu_init+0x66>
  40216a:	31 db                	xor    %ebx,%ebx
  40216c:	0f 1f 40 00          	nopl   0x0(%rax)
  402170:	4c 89 fa             	mov    %r15,%rdx
  402173:	4c 89 f6             	mov    %r14,%rsi
  402176:	44 89 ef             	mov    %r13d,%edi
  402179:	41 ff 14 dc          	callq  *(%r12,%rbx,8)
  40217d:	48 83 c3 01          	add    $0x1,%rbx
  402181:	48 39 eb             	cmp    %rbp,%rbx
  402184:	72 ea                	jb     402170 <__libc_csu_init+0x50>
  402186:	48 8b 5c 24 08       	mov    0x8(%rsp),%rbx
  40218b:	48 8b 6c 24 10       	mov    0x10(%rsp),%rbp
  402190:	4c 8b 64 24 18       	mov    0x18(%rsp),%r12
  402195:	4c 8b 6c 24 20       	mov    0x20(%rsp),%r13
  40219a:	4c 8b 74 24 28       	mov    0x28(%rsp),%r14
  40219f:	4c 8b 7c 24 30       	mov    0x30(%rsp),%r15
  4021a4:	48 83 c4 38          	add    $0x38,%rsp
  4021a8:	c3                   	retq   
  4021a9:	90                   	nop
  4021aa:	90                   	nop
  4021ab:	90                   	nop

Disassembly of section .fini:

00000000004021ac <_fini>:
  4021ac:	48 83 ec 08          	sub    $0x8,%rsp
  4021b0:	48 83 c4 08          	add    $0x8,%rsp
  4021b4:	c3                   	retq   
